(lp1
(S'q'
ccopy_reg
_reconstructor
p2
(c__main__
Trajectory
p3
c__builtin__
object
p4
NtRp5
(dp6
S'end'
p7
I3
sS'cells'
p8
(lp9
g2
(c__main__
Cell
p10
g4
NtRp11
(dp12
S'body'
p13
cnumpy.core.multiarray
scalar
p14
(cnumpy
dtype
p15
(S'i8'
I0
I1
tRp16
(I3
S'<'
NNNI-1
I-1
I0
tbS'\x00\x00\x00\x00\x00\x00\x00\x00'
tRp17
sS'trajectories'
p18
(lp19
sS'frame_number'
p20
I0
sS'arms'
p21
(lp22
I3
aI6
asbag2
(g10
g4
NtRp23
(dp24
g13
g14
(g16
S'\x00\x00\x00\x00\x00\x00\x00\x00'
tRp25
sg18
(lp26
sg20
I1
sg21
(lp27
I3
aI6
asbag2
(g10
g4
NtRp28
(dp29
g13
g14
(g16
S'\x00\x00\x00\x00\x00\x00\x00\x00'
tRp30
sg18
(lp31
sg20
I2
sg21
(lp32
I2
aI5
asbag2
(g10
g4
NtRp33
(dp34
g13
g14
(g16
S'\x00\x00\x00\x00\x00\x00\x00\x00'
tRp35
sg18
(lp36
sg20
I3
sg21
(lp37
I5
asbasS'beginning'
p38
I0
sbtp39
a(S'q'
g2
(g3
g4
NtRp40
(dp41
g7
I57
sg8
(lp42
g2
(g10
g4
NtRp43
(dp44
g13
g14
(g16
S'\x02\x00\x00\x00\x00\x00\x00\x00'
tRp45
sg18
(lp46
sg20
I0
sg21
(lp47
I1
aI8
asbag2
(g10
g4
NtRp48
(dp49
g13
g14
(g16
S'\x02\x00\x00\x00\x00\x00\x00\x00'
tRp50
sg18
(lp51
sg20
I1
sg21
(lp52
I1
asbag2
(g10
g4
NtRp53
(dp54
g13
g14
(g16
S'\x02\x00\x00\x00\x00\x00\x00\x00'
tRp55
sg18
(lp56
sg20
I2
sg21
(lp57
I1
asbag2
(g10
g4
NtRp58
(dp59
g13
g14
(g16
S'\x02\x00\x00\x00\x00\x00\x00\x00'
tRp60
sg18
(lp61
sg20
I3
sg21
(lp62
I6
aI8
asbag2
(g10
g4
NtRp63
(dp64
g13
g14
(g16
S'\x01\x00\x00\x00\x00\x00\x00\x00'
tRp65
sg18
(lp66
sg20
I4
sg21
(lp67
I2
aI7
asbag2
(g10
g4
NtRp68
(dp69
g13
g14
(g16
S'\x01\x00\x00\x00\x00\x00\x00\x00'
tRp70
sg18
(lp71
sg20
I5
sg21
(lp72
I2
aI7
asbag2
(g10
g4
NtRp73
(dp74
g13
g14
(g16
S'\x01\x00\x00\x00\x00\x00\x00\x00'
tRp75
sg18
(lp76
sg20
I6
sg21
(lp77
I4
aI7
aI8
asbag2
(g10
g4
NtRp78
(dp79
g13
g14
(g16
S'\x02\x00\x00\x00\x00\x00\x00\x00'
tRp80
sg18
(lp81
sg20
I7
sg21
(lp82
I3
aI7
aI8
asbag2
(g10
g4
NtRp83
(dp84
g13
g14
(g16
S'\x01\x00\x00\x00\x00\x00\x00\x00'
tRp85
sg18
(lp86
sg20
I8
sg21
(lp87
I2
aI6
aI7
asbag2
(g10
g4
NtRp88
(dp89
g13
g14
(g16
S'\x00\x00\x00\x00\x00\x00\x00\x00'
tRp90
sg18
(lp91
sg20
I9
sg21
(lp92
I4
aI7
aI8
asbag2
(g10
g4
NtRp93
(dp94
g13
g14
(g16
S'\x01\x00\x00\x00\x00\x00\x00\x00'
tRp95
sg18
(lp96
sg20
I10
sg21
(lp97
I3
aI6
aI7
asbag2
(g10
g4
NtRp98
(dp99
g13
g14
(g16
S'\x01\x00\x00\x00\x00\x00\x00\x00'
tRp100
sg18
(lp101
sg20
I11
sg21
(lp102
I4
aI8
asbag2
(g10
g4
NtRp103
(dp104
g13
g14
(g16
S'\x02\x00\x00\x00\x00\x00\x00\x00'
tRp105
sg18
(lp106
sg20
I12
sg21
(lp107
I3
aI9
asbag2
(g10
g4
NtRp108
(dp109
g13
g14
(g16
S'\x02\x00\x00\x00\x00\x00\x00\x00'
tRp110
sg18
(lp111
sg20
I13
sg21
(lp112
I3
aI6
asbag2
(g10
g4
NtRp113
(dp114
g13
g14
(g16
S'\x01\x00\x00\x00\x00\x00\x00\x00'
tRp115
sg18
(lp116
sg20
I14
sg21
(lp117
I4
aI6
asbag2
(g10
g4
NtRp118
(dp119
g13
g14
(g16
S'\x02\x00\x00\x00\x00\x00\x00\x00'
tRp120
sg18
(lp121
sg20
I15
sg21
(lp122
I3
aI5
asbag2
(g10
g4
NtRp123
(dp124
g13
g14
(g16
S'\x02\x00\x00\x00\x00\x00\x00\x00'
tRp125
sg18
(lp126
sg20
I16
sg21
(lp127
I3
aI8
asbag2
(g10
g4
NtRp128
(dp129
g13
g14
(g16
S'\x02\x00\x00\x00\x00\x00\x00\x00'
tRp130
sg18
(lp131
sg20
I17
sg21
(lp132
I4
aI8
asbag2
(g10
g4
NtRp133
(dp134
g13
g14
(g16
S'\x03\x00\x00\x00\x00\x00\x00\x00'
tRp135
sg18
(lp136
sg20
I18
sg21
(lp137
I1
aI6
asbag2
(g10
g4
NtRp138
(dp139
g13
g14
(g16
S'\x02\x00\x00\x00\x00\x00\x00\x00'
tRp140
sg18
(lp141
sg20
I19
sg21
(lp142
I2
aI6
asbag2
(g10
g4
NtRp143
(dp144
g13
g14
(g16
S'\x02\x00\x00\x00\x00\x00\x00\x00'
tRp145
sg18
(lp146
sg20
I20
sg21
(lp147
I3
aI7
asbag2
(g10
g4
NtRp148
(dp149
g13
g14
(g16
S'\x01\x00\x00\x00\x00\x00\x00\x00'
tRp150
sg18
(lp151
sg20
I21
sg21
(lp152
I8
asbag2
(g10
g4
NtRp153
(dp154
g13
g14
(g16
S'\x01\x00\x00\x00\x00\x00\x00\x00'
tRp155
sg18
(lp156
sg20
I22
sg21
(lp157
I7
asbag2
(g10
g4
NtRp158
(dp159
g13
g14
(g16
S'\x01\x00\x00\x00\x00\x00\x00\x00'
tRp160
sg18
(lp161
sg20
I23
sg21
(lp162
I7
asbag2
(g10
g4
NtRp163
(dp164
g13
g14
(g16
S'\x01\x00\x00\x00\x00\x00\x00\x00'
tRp165
sg18
(lp166
sg20
I24
sg21
(lp167
I4
asbag2
(g10
g4
NtRp168
(dp169
g13
g14
(g16
S'\x01\x00\x00\x00\x00\x00\x00\x00'
tRp170
sg18
(lp171
sg20
I25
sg21
(lp172
I7
asbag2
(g10
g4
NtRp173
(dp174
g13
g14
(g16
S'\x02\x00\x00\x00\x00\x00\x00\x00'
tRp175
sg18
(lp176
sg20
I26
sg21
(lp177
sbag2
(g10
g4
NtRp178
(dp179
g13
g14
(g16
S'\x01\x00\x00\x00\x00\x00\x00\x00'
tRp180
sg18
(lp181
sg20
I27
sg21
(lp182
I4
asbag2
(g10
g4
NtRp183
(dp184
g13
g14
(g16
S'\x02\x00\x00\x00\x00\x00\x00\x00'
tRp185
sg18
(lp186
sg20
I28
sg21
(lp187
sbag2
(g10
g4
NtRp188
(dp189
g13
g14
(g16
S'\x04\x00\x00\x00\x00\x00\x00\x00'
tRp190
sg18
(lp191
sg20
I29
sg21
(lp192
sbag2
(g10
g4
NtRp193
(dp194
g13
g14
(g16
S'\x01\x00\x00\x00\x00\x00\x00\x00'
tRp195
sg18
(lp196
sg20
I30
sg21
(lp197
sbag2
(g10
g4
NtRp198
(dp199
g13
g14
(g16
S'\x02\x00\x00\x00\x00\x00\x00\x00'
tRp200
sg18
(lp201
sg20
I31
sg21
(lp202
sbag2
(g10
g4
NtRp203
(dp204
g13
g14
(g16
S'\x03\x00\x00\x00\x00\x00\x00\x00'
tRp205
sg18
(lp206
sg20
I32
sg21
(lp207
I6
asbag2
(g10
g4
NtRp208
(dp209
g13
g14
(g16
S'\x02\x00\x00\x00\x00\x00\x00\x00'
tRp210
sg18
(lp211
sg20
I33
sg21
(lp212
I3
aI7
ag14
(g16
S'\t\x00\x00\x00\x00\x00\x00\x00'
tRp213
asbag2
(g10
g4
NtRp214
(dp215
g13
g14
(g16
S'\x03\x00\x00\x00\x00\x00\x00\x00'
tRp216
sg18
(lp217
sg20
I34
sg21
(lp218
I2
ag14
(g16
S'\x06\x00\x00\x00\x00\x00\x00\x00'
tRp219
asbag2
(g10
g4
NtRp220
(dp221
g13
g14
(g16
S'\x02\x00\x00\x00\x00\x00\x00\x00'
tRp222
sg18
(lp223
sg20
I35
sg21
(lp224
I2
aI3
asbag2
(g10
g4
NtRp225
(dp226
g13
g14
(g16
S'\x03\x00\x00\x00\x00\x00\x00\x00'
tRp227
sg18
(lp228
sg20
I36
sg21
(lp229
I1
asbag2
(g10
g4
NtRp230
(dp231
g13
g14
(g16
S'\x03\x00\x00\x00\x00\x00\x00\x00'
tRp232
sg18
(lp233
sg20
I37
sg21
(lp234
g14
(g16
S'\x02\x00\x00\x00\x00\x00\x00\x00'
tRp235
asbag2
(g10
g4
NtRp236
(dp237
g13
g14
(g16
S'\x03\x00\x00\x00\x00\x00\x00\x00'
tRp238
sg18
(lp239
sg20
I38
sg21
(lp240
I2
asbag2
(g10
g4
NtRp241
(dp242
g13
g14
(g16
S'\x03\x00\x00\x00\x00\x00\x00\x00'
tRp243
sg18
(lp244
sg20
I39
sg21
(lp245
I5
asbag2
(g10
g4
NtRp246
(dp247
g13
g14
(g16
S'\x02\x00\x00\x00\x00\x00\x00\x00'
tRp248
sg18
(lp249
sg20
I40
sg21
(lp250
sbag2
(g10
g4
NtRp251
(dp252
g13
g14
(g16
S'\x02\x00\x00\x00\x00\x00\x00\x00'
tRp253
sg18
(lp254
sg20
I41
sg21
(lp255
sbag2
(g10
g4
NtRp256
(dp257
g13
g14
(g16
S'\x02\x00\x00\x00\x00\x00\x00\x00'
tRp258
sg18
(lp259
sg20
I42
sg21
(lp260
I2
asbag2
(g10
g4
NtRp261
(dp262
g13
g14
(g16
S'\x03\x00\x00\x00\x00\x00\x00\x00'
tRp263
sg18
(lp264
sg20
I43
sg21
(lp265
sbag2
(g10
g4
NtRp266
(dp267
g13
g14
(g16
S'\x02\x00\x00\x00\x00\x00\x00\x00'
tRp268
sg18
(lp269
sg20
I44
sg21
(lp270
sbag2
(g10
g4
NtRp271
(dp272
g13
g14
(g16
S'L\x00\x00\x00\x00\x00\x00\x00'
tRp273
sg18
(lp274
sg20
I45
sg21
(lp275
I9
aI10
aI13
asbag2
(g10
g4
NtRp276
(dp277
g13
g14
(g16
S'\x04\x00\x00\x00\x00\x00\x00\x00'
tRp278
sg18
(lp279
sg20
I46
sg21
(lp280
I3
aI7
aI11
asbag2
(g10
g4
NtRp281
(dp282
g13
g14
(g16
S'\x04\x00\x00\x00\x00\x00\x00\x00'
tRp283
sg18
(lp284
sg20
I47
sg21
(lp285
I5
aI10
asbag2
(g10
g4
NtRp286
(dp287
g13
g14
(g16
S'N\x00\x00\x00\x00\x00\x00\x00'
tRp288
sg18
(lp289
sg20
I48
sg21
(lp290
I6
aI9
ag14
(g16
S'\x01\x00\x00\x00\x00\x00\x00\x00'
tRp291
asbag2
(g10
g4
NtRp292
(dp293
g13
g14
(g16
S'\x01\x00\x00\x00\x00\x00\x00\x00'
tRp294
sg18
(lp295
sg20
I49
sg21
(lp296
I5
aI9
asbag2
(g10
g4
NtRp297
(dp298
g13
g14
(g16
S'\x00\x00\x00\x00\x00\x00\x00\x00'
tRp299
sg18
(lp300
sg20
I50
sg21
(lp301
I8
ag14
(g16
S'\x0e\x00\x00\x00\x00\x00\x00\x00'
tRp302
asbag2
(g10
g4
NtRp303
(dp304
g13
g14
(g16
S'M\x00\x00\x00\x00\x00\x00\x00'
tRp305
sg18
(lp306
sg20
I51
sg21
(lp307
I6
aI9
asbag2
(g10
g4
NtRp308
(dp309
g13
g14
(g16
S'\x01\x00\x00\x00\x00\x00\x00\x00'
tRp310
sg18
(lp311
sg20
I52
sg21
(lp312
I6
aI7
asbag2
(g10
g4
NtRp313
(dp314
g13
g14
(g16
S'\x00\x00\x00\x00\x00\x00\x00\x00'
tRp315
sg18
(lp316
sg20
I53
sg21
(lp317
I7
aI10
aI13
asbag2
(g10
g4
NtRp318
(dp319
g13
g14
(g16
S'\x01\x00\x00\x00\x00\x00\x00\x00'
tRp320
sg18
(lp321
sg20
I54
sg21
(lp322
I5
aI8
asbag2
(g10
g4
NtRp323
(dp324
g13
g14
(g16
S'P\x00\x00\x00\x00\x00\x00\x00'
tRp325
sg18
(lp326
sg20
I55
sg21
(lp327
I4
ag14
(g16
S'\x07\x00\x00\x00\x00\x00\x00\x00'
tRp328
asbag2
(g10
g4
NtRp329
(dp330
g13
g14
(g16
S'\x02\x00\x00\x00\x00\x00\x00\x00'
tRp331
sg18
(lp332
sg20
I56
sg21
(lp333
I5
aI9
asbag2
(g10
g4
NtRp334
(dp335
g13
g14
(g16
S'S\x00\x00\x00\x00\x00\x00\x00'
tRp336
sg18
(lp337
sg20
I57
sg21
(lp338
I3
aI8
ag14
(g16
S'\n\x00\x00\x00\x00\x00\x00\x00'
tRp339
asbasg38
I0
sbtp340
a(S'q'
g2
(g3
g4
NtRp341
(dp342
g7
I7
sg8
(lp343
g2
(g10
g4
NtRp344
(dp345
g13
g14
(g16
S'\x04\x00\x00\x00\x00\x00\x00\x00'
tRp346
sg18
(lp347
sg20
I0
sg21
(lp348
I13
ag14
(g16
S'\x12\x00\x00\x00\x00\x00\x00\x00'
tRp349
asbag2
(g10
g4
NtRp350
(dp351
g13
g14
(g16
S'\x05\x00\x00\x00\x00\x00\x00\x00'
tRp352
sg18
(lp353
sg20
I1
sg21
(lp354
I14
aI15
aI20
aI26
asbag2
(g10
g4
NtRp355
(dp356
g13
g14
(g16
S'\x04\x00\x00\x00\x00\x00\x00\x00'
tRp357
sg18
(lp358
sg20
I2
sg21
(lp359
I10
aI13
aI16
aI20
ag14
(g16
S'\x12\x00\x00\x00\x00\x00\x00\x00'
tRp360
asbag2
(g10
g4
NtRp361
(dp362
g13
g14
(g16
S'\x03\x00\x00\x00\x00\x00\x00\x00'
tRp363
sg18
(lp364
sg20
I3
sg21
(lp365
I9
aI13
aI19
asbag2
(g10
g4
NtRp366
(dp367
g13
g14
(g16
S'\x02\x00\x00\x00\x00\x00\x00\x00'
tRp368
sg18
(lp369
sg20
I4
sg21
(lp370
I8
aI11
aI15
aI18
aI19
asbag2
(g10
g4
NtRp371
(dp372
g13
g14
(g16
S'\x02\x00\x00\x00\x00\x00\x00\x00'
tRp373
sg18
(lp374
sg20
I5
sg21
(lp375
I6
aI11
ag14
(g16
S'\x0c\x00\x00\x00\x00\x00\x00\x00'
tRp376
ag14
(g16
S'\x0f\x00\x00\x00\x00\x00\x00\x00'
tRp377
asbag2
(g10
g4
NtRp378
(dp379
g13
g14
(g16
S'\x02\x00\x00\x00\x00\x00\x00\x00'
tRp380
sg18
(lp381
sg20
I6
sg21
(lp382
I6
aI12
aI17
asbag2
(g10
g4
NtRp383
(dp384
g13
g14
(g16
S'\x04\x00\x00\x00\x00\x00\x00\x00'
tRp385
sg18
(lp386
sg20
I7
sg21
(lp387
I6
aI10
aI15
asbasg38
I0
sbtp388
a(S'r'
g2
(g3
g4
NtRp389
(dp390
g7
I21
sg8
(lp391
g2
(g10
g4
NtRp392
(dp393
g13
g14
(g16
S'\x0f\x00\x00\x00\x00\x00\x00\x00'
tRp394
sg18
(lp395
sg20
I0
sg21
(lp396
I29
aI33
aI41
asbag2
(g10
g4
NtRp397
(dp398
g13
g14
(g16
S'\x10\x00\x00\x00\x00\x00\x00\x00'
tRp399
sg18
(lp400
sg20
I1
sg21
(lp401
I29
aI35
aI42
asbag2
(g10
g4
NtRp402
(dp403
g13
g14
(g16
S'\x10\x00\x00\x00\x00\x00\x00\x00'
tRp404
sg18
(lp405
sg20
I2
sg21
(lp406
I27
aI36
aI37
asbag2
(g10
g4
NtRp407
(dp408
g13
g14
(g16
S'\x0f\x00\x00\x00\x00\x00\x00\x00'
tRp409
sg18
(lp410
sg20
I3
sg21
(lp411
I25
aI32
aI35
aI37
asbag2
(g10
g4
NtRp412
(dp413
g13
g14
(g16
S'\x0f\x00\x00\x00\x00\x00\x00\x00'
tRp414
sg18
(lp415
sg20
I4
sg21
(lp416
I24
aI29
aI34
aI35
asbag2
(g10
g4
NtRp417
(dp418
g13
g14
(g16
S'\x10\x00\x00\x00\x00\x00\x00\x00'
tRp419
sg18
(lp420
sg20
I5
sg21
(lp421
I31
aI33
aI37
asbag2
(g10
g4
NtRp422
(dp423
g13
g14
(g16
S'\x10\x00\x00\x00\x00\x00\x00\x00'
tRp424
sg18
(lp425
sg20
I6
sg21
(lp426
I33
aI35
aI39
asbag2
(g10
g4
NtRp427
(dp428
g13
g14
(g16
S'\x0f\x00\x00\x00\x00\x00\x00\x00'
tRp429
sg18
(lp430
sg20
I7
sg21
(lp431
I27
aI30
asbag2
(g10
g4
NtRp432
(dp433
g13
g14
(g16
S'\x11\x00\x00\x00\x00\x00\x00\x00'
tRp434
sg18
(lp435
sg20
I8
sg21
(lp436
I34
aI35
aI38
aI39
asbag2
(g10
g4
NtRp437
(dp438
g13
g14
(g16
S'\x13\x00\x00\x00\x00\x00\x00\x00'
tRp439
sg18
(lp440
sg20
I9
sg21
(lp441
I37
aI46
asbag2
(g10
g4
NtRp442
(dp443
g13
g14
(g16
S'\x14\x00\x00\x00\x00\x00\x00\x00'
tRp444
sg18
(lp445
sg20
I10
sg21
(lp446
I35
aI42
asbag2
(g10
g4
NtRp447
(dp448
g13
g14
(g16
S'\x14\x00\x00\x00\x00\x00\x00\x00'
tRp449
sg18
(lp450
sg20
I11
sg21
(lp451
I40
aI41
asbag2
(g10
g4
NtRp452
(dp453
g13
g14
(g16
S'\x12\x00\x00\x00\x00\x00\x00\x00'
tRp454
sg18
(lp455
sg20
I12
sg21
(lp456
I38
aI39
aI44
asbag2
(g10
g4
NtRp457
(dp458
g13
g14
(g16
S'\x12\x00\x00\x00\x00\x00\x00\x00'
tRp459
sg18
(lp460
sg20
I13
sg21
(lp461
I34
aI36
aI39
asbag2
(g10
g4
NtRp462
(dp463
g13
g14
(g16
S'\x13\x00\x00\x00\x00\x00\x00\x00'
tRp464
sg18
(lp465
sg20
I14
sg21
(lp466
I34
aI39
aI43
asbag2
(g10
g4
NtRp467
(dp468
g13
g14
(g16
S'\x13\x00\x00\x00\x00\x00\x00\x00'
tRp469
sg18
(lp470
sg20
I15
sg21
(lp471
I27
aI29
asbag2
(g10
g4
NtRp472
(dp473
g13
g14
(g16
S'\x14\x00\x00\x00\x00\x00\x00\x00'
tRp474
sg18
(lp475
sg20
I16
sg21
(lp476
I30
aI32
aI35
asbag2
(g10
g4
NtRp477
(dp478
g13
g14
(g16
S'\x14\x00\x00\x00\x00\x00\x00\x00'
tRp479
sg18
(lp480
sg20
I17
sg21
(lp481
I33
aI34
aI39
asbag2
(g10
g4
NtRp482
(dp483
g13
g14
(g16
S'\x14\x00\x00\x00\x00\x00\x00\x00'
tRp484
sg18
(lp485
sg20
I18
sg21
(lp486
I31
aI35
asbag2
(g10
g4
NtRp487
(dp488
g13
g14
(g16
S'\x12\x00\x00\x00\x00\x00\x00\x00'
tRp489
sg18
(lp490
sg20
I19
sg21
(lp491
I25
aI31
asbag2
(g10
g4
NtRp492
(dp493
g13
g14
(g16
S'\x11\x00\x00\x00\x00\x00\x00\x00'
tRp494
sg18
(lp495
sg20
I20
sg21
(lp496
I37
aI39
asbag2
(g10
g4
NtRp497
(dp498
g13
g14
(g16
S'\x12\x00\x00\x00\x00\x00\x00\x00'
tRp499
sg18
(lp500
sg20
I21
sg21
(lp501
I35
aI38
asbasg38
I0
sbtp502
a(S'q'
g2
(g3
g4
NtRp503
(dp504
g7
I28
sg8
(lp505
g2
(g10
g4
NtRp506
(dp507
g13
g14
(g16
S'\x1b\x00\x00\x00\x00\x00\x00\x00'
tRp508
sg18
(lp509
sg20
I0
sg21
(lp510
I65
aI68
aI76
asbag2
(g10
g4
NtRp511
(dp512
g13
g14
(g16
S'\x1b\x00\x00\x00\x00\x00\x00\x00'
tRp513
sg18
(lp514
sg20
I1
sg21
(lp515
I58
aI64
aI65
asbag2
(g10
g4
NtRp516
(dp517
g13
g14
(g16
S'\x1c\x00\x00\x00\x00\x00\x00\x00'
tRp518
sg18
(lp519
sg20
I2
sg21
(lp520
I51
aI57
aI62
asbag2
(g10
g4
NtRp521
(dp522
g13
g14
(g16
S'\x1b\x00\x00\x00\x00\x00\x00\x00'
tRp523
sg18
(lp524
sg20
I3
sg21
(lp525
I50
aI53
aI56
aI60
asbag2
(g10
g4
NtRp526
(dp527
g13
g14
(g16
S'\x1c\x00\x00\x00\x00\x00\x00\x00'
tRp528
sg18
(lp529
sg20
I4
sg21
(lp530
I48
aI52
aI58
aI60
asbag2
(g10
g4
NtRp531
(dp532
g13
g14
(g16
S'\x1d\x00\x00\x00\x00\x00\x00\x00'
tRp533
sg18
(lp534
sg20
I5
sg21
(lp535
I49
aI53
aI59
asbag2
(g10
g4
NtRp536
(dp537
g13
g14
(g16
S'\x1e\x00\x00\x00\x00\x00\x00\x00'
tRp538
sg18
(lp539
sg20
I6
sg21
(lp540
I55
aI68
asbag2
(g10
g4
NtRp541
(dp542
g13
g14
(g16
S'\x1d\x00\x00\x00\x00\x00\x00\x00'
tRp543
sg18
(lp544
sg20
I7
sg21
(lp545
I48
aI55
aI66
aI67
asbag2
(g10
g4
NtRp546
(dp547
g13
g14
(g16
S'\x1d\x00\x00\x00\x00\x00\x00\x00'
tRp548
sg18
(lp549
sg20
I8
sg21
(lp550
I51
aI55
aI60
asbag2
(g10
g4
NtRp551
(dp552
g13
g14
(g16
S'\x1f\x00\x00\x00\x00\x00\x00\x00'
tRp553
sg18
(lp554
sg20
I9
sg21
(lp555
I66
aI72
asbag2
(g10
g4
NtRp556
(dp557
g13
g14
(g16
S' \x00\x00\x00\x00\x00\x00\x00'
tRp558
sg18
(lp559
sg20
I10
sg21
(lp560
I58
aI65
ag14
(g16
S'D\x00\x00\x00\x00\x00\x00\x00'
tRp561
asbag2
(g10
g4
NtRp562
(dp563
g13
g14
(g16
S'\x1e\x00\x00\x00\x00\x00\x00\x00'
tRp564
sg18
(lp565
sg20
I11
sg21
(lp566
I58
aI61
ag14
(g16
S'C\x00\x00\x00\x00\x00\x00\x00'
tRp567
asbag2
(g10
g4
NtRp568
(dp569
g13
g14
(g16
S'\x1d\x00\x00\x00\x00\x00\x00\x00'
tRp570
sg18
(lp571
sg20
I12
sg21
(lp572
I61
aI68
asbag2
(g10
g4
NtRp573
(dp574
g13
g14
(g16
S'\x1c\x00\x00\x00\x00\x00\x00\x00'
tRp575
sg18
(lp576
sg20
I13
sg21
(lp577
I55
asbag2
(g10
g4
NtRp578
(dp579
g13
g14
(g16
S'\x1c\x00\x00\x00\x00\x00\x00\x00'
tRp580
sg18
(lp581
sg20
I14
sg21
(lp582
I65
aI68
asbag2
(g10
g4
NtRp583
(dp584
g13
g14
(g16
S'\x1e\x00\x00\x00\x00\x00\x00\x00'
tRp585
sg18
(lp586
sg20
I15
sg21
(lp587
I48
asbag2
(g10
g4
NtRp588
(dp589
g13
g14
(g16
S'\x1d\x00\x00\x00\x00\x00\x00\x00'
tRp590
sg18
(lp591
sg20
I16
sg21
(lp592
I41
aI50
aI53
asbag2
(g10
g4
NtRp593
(dp594
g13
g14
(g16
S'\x1f\x00\x00\x00\x00\x00\x00\x00'
tRp595
sg18
(lp596
sg20
I17
sg21
(lp597
I47
aI58
asbag2
(g10
g4
NtRp598
(dp599
g13
g14
(g16
S' \x00\x00\x00\x00\x00\x00\x00'
tRp600
sg18
(lp601
sg20
I18
sg21
(lp602
I55
aI56
asbag2
(g10
g4
NtRp603
(dp604
g13
g14
(g16
S'\x1f\x00\x00\x00\x00\x00\x00\x00'
tRp605
sg18
(lp606
sg20
I19
sg21
(lp607
I52
aI58
aI59
ag14
(g16
S'1\x00\x00\x00\x00\x00\x00\x00'
tRp608
asbag2
(g10
g4
NtRp609
(dp610
g13
g14
(g16
S'\x1d\x00\x00\x00\x00\x00\x00\x00'
tRp611
sg18
(lp612
sg20
I20
sg21
(lp613
I64
aI69
aI71
ag14
(g16
S'?\x00\x00\x00\x00\x00\x00\x00'
tRp614
asbag2
(g10
g4
NtRp615
(dp616
g13
g14
(g16
S'\x1e\x00\x00\x00\x00\x00\x00\x00'
tRp617
sg18
(lp618
sg20
I21
sg21
(lp619
I61
aI67
aI70
aI74
aI76
asbag2
(g10
g4
NtRp620
(dp621
g13
g14
(g16
S'\x1e\x00\x00\x00\x00\x00\x00\x00'
tRp622
sg18
(lp623
sg20
I22
sg21
(lp624
I58
aI65
aI67
aI70
aI72
asbag2
(g10
g4
NtRp625
(dp626
g13
g14
(g16
S'\x1d\x00\x00\x00\x00\x00\x00\x00'
tRp627
sg18
(lp628
sg20
I23
sg21
(lp629
I58
aI59
asbag2
(g10
g4
NtRp630
(dp631
g13
g14
(g16
S'\x1f\x00\x00\x00\x00\x00\x00\x00'
tRp632
sg18
(lp633
sg20
I24
sg21
(lp634
I53
aI57
aI59
aI61
asbag2
(g10
g4
NtRp635
(dp636
g13
g14
(g16
S'\x1e\x00\x00\x00\x00\x00\x00\x00'
tRp637
sg18
(lp638
sg20
I25
sg21
(lp639
I53
aI59
asbag2
(g10
g4
NtRp640
(dp641
g13
g14
(g16
S'#\x00\x00\x00\x00\x00\x00\x00'
tRp642
sg18
(lp643
sg20
I26
sg21
(lp644
I54
aI62
ag14
(g16
S'=\x00\x00\x00\x00\x00\x00\x00'
tRp645
asbag2
(g10
g4
NtRp646
(dp647
g13
g14
(g16
S'#\x00\x00\x00\x00\x00\x00\x00'
tRp648
sg18
(lp649
sg20
I27
sg21
(lp650
I49
asbag2
(g10
g4
NtRp651
(dp652
g13
g14
(g16
S'!\x00\x00\x00\x00\x00\x00\x00'
tRp653
sg18
(lp654
sg20
I28
sg21
(lp655
I54
asbasg38
I0
sbtp656
a(S'q'
g2
(g3
g4
NtRp657
(dp658
g7
I0
sg8
(lp659
g2
(g10
g4
NtRp660
(dp661
g13
g14
(g16
S'\x1e\x00\x00\x00\x00\x00\x00\x00'
tRp662
sg18
(lp663
sg20
I0
sg21
(lp664
I72
aI77
aI79
asbasg38
I0
sbtp665
a(S'q'
g2
(g3
g4
NtRp666
(dp667
g7
I12
sg8
(lp668
g2
(g10
g4
NtRp669
(dp670
g13
g14
(g16
S'$\x00\x00\x00\x00\x00\x00\x00'
tRp671
sg18
(lp672
sg20
I0
sg21
(lp673
I86
aI92
aI98
asbag2
(g10
g4
NtRp674
(dp675
g13
g14
(g16
S'%\x00\x00\x00\x00\x00\x00\x00'
tRp676
sg18
(lp677
sg20
I1
sg21
(lp678
I70
aI74
aI78
aI82
asbag2
(g10
g4
NtRp679
(dp680
g13
g14
(g16
S'$\x00\x00\x00\x00\x00\x00\x00'
tRp681
sg18
(lp682
sg20
I2
sg21
(lp683
I65
aI72
aI77
aI80
aI81
asbag2
(g10
g4
NtRp684
(dp685
g13
g14
(g16
S'!\x00\x00\x00\x00\x00\x00\x00'
tRp686
sg18
(lp687
sg20
I3
sg21
(lp688
I65
aI74
aI78
asbag2
(g10
g4
NtRp689
(dp690
g13
g14
(g16
S'!\x00\x00\x00\x00\x00\x00\x00'
tRp691
sg18
(lp692
sg20
I4
sg21
(lp693
I62
aI68
aI74
asbag2
(g10
g4
NtRp694
(dp695
g13
g14
(g16
S'"\x00\x00\x00\x00\x00\x00\x00'
tRp696
sg18
(lp697
sg20
I5
sg21
(lp698
I62
aI64
aI69
asbag2
(g10
g4
NtRp699
(dp700
g13
g14
(g16
S'#\x00\x00\x00\x00\x00\x00\x00'
tRp701
sg18
(lp702
sg20
I6
sg21
(lp703
I69
aI70
aI75
asbag2
(g10
g4
NtRp704
(dp705
g13
g14
(g16
S'#\x00\x00\x00\x00\x00\x00\x00'
tRp706
sg18
(lp707
sg20
I7
sg21
(lp708
I68
aI70
aI76
asbag2
(g10
g4
NtRp709
(dp710
g13
g14
(g16
S'#\x00\x00\x00\x00\x00\x00\x00'
tRp711
sg18
(lp712
sg20
I8
sg21
(lp713
I67
ag14
(g16
S'I\x00\x00\x00\x00\x00\x00\x00'
tRp714
asbag2
(g10
g4
NtRp715
(dp716
g13
g14
(g16
S'(\x00\x00\x00\x00\x00\x00\x00'
tRp717
sg18
(lp718
sg20
I9
sg21
(lp719
I80
aI90
asbag2
(g10
g4
NtRp720
(dp721
g13
g14
(g16
S'*\x00\x00\x00\x00\x00\x00\x00'
tRp722
sg18
(lp723
sg20
I10
sg21
(lp724
I70
ag14
(g16
S'S\x00\x00\x00\x00\x00\x00\x00'
tRp725
asbag2
(g10
g4
NtRp726
(dp727
g13
g14
(g16
S"'\x00\x00\x00\x00\x00\x00\x00"
tRp728
sg18
(lp729
sg20
I11
sg21
(lp730
I70
aI74
aI82
aI85
asbag2
(g10
g4
NtRp731
(dp732
g13
g14
(g16
S'$\x00\x00\x00\x00\x00\x00\x00'
tRp733
sg18
(lp734
sg20
I12
sg21
(lp735
I79
asbasg38
I0
sbtp736
a(S'q'
g2
(g3
g4
NtRp737
(dp738
g7
I6
sg8
(lp739
g2
(g10
g4
NtRp740
(dp741
g13
g14
(g16
S'-\x00\x00\x00\x00\x00\x00\x00'
tRp742
sg18
(lp743
sg20
I0
sg21
(lp744
I103
aI110
aI116
asbag2
(g10
g4
NtRp745
(dp746
g13
g14
(g16
S'1\x00\x00\x00\x00\x00\x00\x00'
tRp747
sg18
(lp748
sg20
I1
sg21
(lp749
I102
asbag2
(g10
g4
NtRp750
(dp751
g13
g14
(g16
S'2\x00\x00\x00\x00\x00\x00\x00'
tRp752
sg18
(lp753
sg20
I2
sg21
(lp754
g14
(g16
S'h\x00\x00\x00\x00\x00\x00\x00'
tRp755
asbag2
(g10
g4
NtRp756
(dp757
g13
g14
(g16
S'1\x00\x00\x00\x00\x00\x00\x00'
tRp758
sg18
(lp759
sg20
I3
sg21
(lp760
sbag2
(g10
g4
NtRp761
(dp762
g13
g14
(g16
S'1\x00\x00\x00\x00\x00\x00\x00'
tRp763
sg18
(lp764
sg20
I4
sg21
(lp765
I92
asbag2
(g10
g4
NtRp766
(dp767
g13
g14
(g16
S'2\x00\x00\x00\x00\x00\x00\x00'
tRp768
sg18
(lp769
sg20
I5
sg21
(lp770
I89
aI90
asbag2
(g10
g4
NtRp771
(dp772
g13
g14
(g16
S'3\x00\x00\x00\x00\x00\x00\x00'
tRp773
sg18
(lp774
sg20
I6
sg21
(lp775
I93
aI95
asbasg38
I0
sbtp776
a(S'q'
g2
(g3
g4
NtRp777
(dp778
g7
I18
sg8
(lp779
g2
(g10
g4
NtRp780
(dp781
g13
g14
(g16
S'4\x00\x00\x00\x00\x00\x00\x00'
tRp782
sg18
(lp783
sg20
I0
sg21
(lp784
I124
aI127
aI132
asbag2
(g10
g4
NtRp785
(dp786
g13
g14
(g16
S'9\x00\x00\x00\x00\x00\x00\x00'
tRp787
sg18
(lp788
sg20
I1
sg21
(lp789
I111
aI115
aI120
aI123
asbag2
(g10
g4
NtRp790
(dp791
g13
g14
(g16
S'9\x00\x00\x00\x00\x00\x00\x00'
tRp792
sg18
(lp793
sg20
I2
sg21
(lp794
I115
aI118
aI121
asbag2
(g10
g4
NtRp795
(dp796
g13
g14
(g16
S'7\x00\x00\x00\x00\x00\x00\x00'
tRp797
sg18
(lp798
sg20
I3
sg21
(lp799
I108
aI117
asbag2
(g10
g4
NtRp800
(dp801
g13
g14
(g16
S'6\x00\x00\x00\x00\x00\x00\x00'
tRp802
sg18
(lp803
sg20
I4
sg21
(lp804
I99
aI104
aI109
asbag2
(g10
g4
NtRp805
(dp806
g13
g14
(g16
S'7\x00\x00\x00\x00\x00\x00\x00'
tRp807
sg18
(lp808
sg20
I5
sg21
(lp809
I96
aI103
asbag2
(g10
g4
NtRp810
(dp811
g13
g14
(g16
S'8\x00\x00\x00\x00\x00\x00\x00'
tRp812
sg18
(lp813
sg20
I6
sg21
(lp814
I99
aI104
aI109
asbag2
(g10
g4
NtRp815
(dp816
g13
g14
(g16
S'7\x00\x00\x00\x00\x00\x00\x00'
tRp817
sg18
(lp818
sg20
I7
sg21
(lp819
I95
aI101
aI103
asbag2
(g10
g4
NtRp820
(dp821
g13
g14
(g16
S'5\x00\x00\x00\x00\x00\x00\x00'
tRp822
sg18
(lp823
sg20
I8
sg21
(lp824
I104
aI110
aI112
asbag2
(g10
g4
NtRp825
(dp826
g13
g14
(g16
S'8\x00\x00\x00\x00\x00\x00\x00'
tRp827
sg18
(lp828
sg20
I9
sg21
(lp829
I113
aI123
aI126
asbag2
(g10
g4
NtRp830
(dp831
g13
g14
(g16
S'>\x00\x00\x00\x00\x00\x00\x00'
tRp832
sg18
(lp833
sg20
I10
sg21
(lp834
I103
aI110
aI115
aI116
asbag2
(g10
g4
NtRp835
(dp836
g13
g14
(g16
S'8\x00\x00\x00\x00\x00\x00\x00'
tRp837
sg18
(lp838
sg20
I11
sg21
(lp839
I102
aI104
asbag2
(g10
g4
NtRp840
(dp841
g13
g14
(g16
S'7\x00\x00\x00\x00\x00\x00\x00'
tRp842
sg18
(lp843
sg20
I12
sg21
(lp844
I106
aI114
asbag2
(g10
g4
NtRp845
(dp846
g13
g14
(g16
S'8\x00\x00\x00\x00\x00\x00\x00'
tRp847
sg18
(lp848
sg20
I13
sg21
(lp849
I105
aI109
aI115
asbag2
(g10
g4
NtRp850
(dp851
g13
g14
(g16
S'6\x00\x00\x00\x00\x00\x00\x00'
tRp852
sg18
(lp853
sg20
I14
sg21
(lp854
I96
aI99
aI102
aI104
asbag2
(g10
g4
NtRp855
(dp856
g13
g14
(g16
S'4\x00\x00\x00\x00\x00\x00\x00'
tRp857
sg18
(lp858
sg20
I15
sg21
(lp859
I83
aI84
aI91
asbag2
(g10
g4
NtRp860
(dp861
g13
g14
(g16
S'6\x00\x00\x00\x00\x00\x00\x00'
tRp862
sg18
(lp863
sg20
I16
sg21
(lp864
I83
aI84
aI89
aI91
asbag2
(g10
g4
NtRp865
(dp866
g13
g14
(g16
S';\x00\x00\x00\x00\x00\x00\x00'
tRp867
sg18
(lp868
sg20
I17
sg21
(lp869
I90
aI98
asbag2
(g10
g4
NtRp870
(dp871
g13
g14
(g16
S'9\x00\x00\x00\x00\x00\x00\x00'
tRp872
sg18
(lp873
sg20
I18
sg21
(lp874
I98
ag14
(g16
S']\x00\x00\x00\x00\x00\x00\x00'
tRp875
asbasg38
I0
sbtp876
a(S'q'
g2
(g3
g4
NtRp877
(dp878
g7
I9
sg8
(lp879
g2
(g10
g4
NtRp880
(dp881
g13
g14
(g16
S'6\x00\x00\x00\x00\x00\x00\x00'
tRp882
sg18
(lp883
sg20
I0
sg21
(lp884
I122
asbag2
(g10
g4
NtRp885
(dp886
g13
g14
(g16
S':\x00\x00\x00\x00\x00\x00\x00'
tRp887
sg18
(lp888
sg20
I1
sg21
(lp889
I112
aI114
aI121
asbag2
(g10
g4
NtRp890
(dp891
g13
g14
(g16
S';\x00\x00\x00\x00\x00\x00\x00'
tRp892
sg18
(lp893
sg20
I2
sg21
(lp894
I114
aI123
asbag2
(g10
g4
NtRp895
(dp896
g13
g14
(g16
S'8\x00\x00\x00\x00\x00\x00\x00'
tRp897
sg18
(lp898
sg20
I3
sg21
(lp899
I111
aI118
asbag2
(g10
g4
NtRp900
(dp901
g13
g14
(g16
S'8\x00\x00\x00\x00\x00\x00\x00'
tRp902
sg18
(lp903
sg20
I4
sg21
(lp904
I111
asbag2
(g10
g4
NtRp905
(dp906
g13
g14
(g16
S'9\x00\x00\x00\x00\x00\x00\x00'
tRp907
sg18
(lp908
sg20
I5
sg21
(lp909
I99
aI107
asbag2
(g10
g4
NtRp910
(dp911
g13
g14
(g16
S';\x00\x00\x00\x00\x00\x00\x00'
tRp912
sg18
(lp913
sg20
I6
sg21
(lp914
I115
asbag2
(g10
g4
NtRp915
(dp916
g13
g14
(g16
S'9\x00\x00\x00\x00\x00\x00\x00'
tRp917
sg18
(lp918
sg20
I7
sg21
(lp919
I98
aI107
asbag2
(g10
g4
NtRp920
(dp921
g13
g14
(g16
S'9\x00\x00\x00\x00\x00\x00\x00'
tRp922
sg18
(lp923
sg20
I8
sg21
(lp924
I108
aI113
asbag2
(g10
g4
NtRp925
(dp926
g13
g14
(g16
S';\x00\x00\x00\x00\x00\x00\x00'
tRp927
sg18
(lp928
sg20
I9
sg21
(lp929
I127
asbasg38
I0
sbtp930
a(S'r'
g2
(g3
g4
NtRp931
(dp932
g7
I166
sg8
(lp933
g2
(g10
g4
NtRp934
(dp935
g13
g14
(g16
S';\x00\x00\x00\x00\x00\x00\x00'
tRp936
sg18
(lp937
sg20
I0
sg21
(lp938
sbag2
(g10
g4
NtRp939
(dp940
g13
g14
(g16
S'>\x00\x00\x00\x00\x00\x00\x00'
tRp941
sg18
(lp942
sg20
I1
sg21
(lp943
sbag2
(g10
g4
NtRp944
(dp945
g13
g14
(g16
S'>\x00\x00\x00\x00\x00\x00\x00'
tRp946
sg18
(lp947
sg20
I2
sg21
(lp948
sbag2
(g10
g4
NtRp949
(dp950
g13
g14
(g16
S'<\x00\x00\x00\x00\x00\x00\x00'
tRp951
sg18
(lp952
sg20
I3
sg21
(lp953
sbag2
(g10
g4
NtRp954
(dp955
g13
g14
(g16
S'<\x00\x00\x00\x00\x00\x00\x00'
tRp956
sg18
(lp957
sg20
I4
sg21
(lp958
sbag2
(g10
g4
NtRp959
(dp960
g13
g14
(g16
S'=\x00\x00\x00\x00\x00\x00\x00'
tRp961
sg18
(lp962
sg20
I5
sg21
(lp963
sbag2
(g10
g4
NtRp964
(dp965
g13
g14
(g16
S'?\x00\x00\x00\x00\x00\x00\x00'
tRp966
sg18
(lp967
sg20
I6
sg21
(lp968
I114
asbag2
(g10
g4
NtRp969
(dp970
g13
g14
(g16
S'>\x00\x00\x00\x00\x00\x00\x00'
tRp971
sg18
(lp972
sg20
I7
sg21
(lp973
I108
asbag2
(g10
g4
NtRp974
(dp975
g13
g14
(g16
S'=\x00\x00\x00\x00\x00\x00\x00'
tRp976
sg18
(lp977
sg20
I8
sg21
(lp978
sbag2
(g10
g4
NtRp979
(dp980
g13
g14
(g16
S'?\x00\x00\x00\x00\x00\x00\x00'
tRp981
sg18
(lp982
sg20
I9
sg21
(lp983
I130
aI140
asbag2
(g10
g4
NtRp984
(dp985
g13
g14
(g16
S'C\x00\x00\x00\x00\x00\x00\x00'
tRp986
sg18
(lp987
sg20
I10
sg21
(lp988
I129
asbag2
(g10
g4
NtRp989
(dp990
g13
g14
(g16
S'?\x00\x00\x00\x00\x00\x00\x00'
tRp991
sg18
(lp992
sg20
I11
sg21
(lp993
sbag2
(g10
g4
NtRp994
(dp995
g13
g14
(g16
S'<\x00\x00\x00\x00\x00\x00\x00'
tRp996
sg18
(lp997
sg20
I12
sg21
(lp998
sbag2
(g10
g4
NtRp999
(dp1000
g13
g14
(g16
S'=\x00\x00\x00\x00\x00\x00\x00'
tRp1001
sg18
(lp1002
sg20
I13
sg21
(lp1003
I131
aI137
asbag2
(g10
g4
NtRp1004
(dp1005
g13
g14
(g16
S'=\x00\x00\x00\x00\x00\x00\x00'
tRp1006
sg18
(lp1007
sg20
I14
sg21
(lp1008
sbag2
(g10
g4
NtRp1009
(dp1010
g13
g14
(g16
S':\x00\x00\x00\x00\x00\x00\x00'
tRp1011
sg18
(lp1012
sg20
I15
sg21
(lp1013
I110
aI111
asbag2
(g10
g4
NtRp1014
(dp1015
g13
g14
(g16
S';\x00\x00\x00\x00\x00\x00\x00'
tRp1016
sg18
(lp1017
sg20
I16
sg21
(lp1018
sbag2
(g10
g4
NtRp1019
(dp1020
g13
g14
(g16
S'@\x00\x00\x00\x00\x00\x00\x00'
tRp1021
sg18
(lp1022
sg20
I17
sg21
(lp1023
I113
asbag2
(g10
g4
NtRp1024
(dp1025
g13
g14
(g16
S'A\x00\x00\x00\x00\x00\x00\x00'
tRp1026
sg18
(lp1027
sg20
I18
sg21
(lp1028
I122
asbag2
(g10
g4
NtRp1029
(dp1030
g13
g14
(g16
S'?\x00\x00\x00\x00\x00\x00\x00'
tRp1031
sg18
(lp1032
sg20
I19
sg21
(lp1033
sbag2
(g10
g4
NtRp1034
(dp1035
g13
g14
(g16
S'>\x00\x00\x00\x00\x00\x00\x00'
tRp1036
sg18
(lp1037
sg20
I20
sg21
(lp1038
I124
asbag2
(g10
g4
NtRp1039
(dp1040
g13
g14
(g16
S'>\x00\x00\x00\x00\x00\x00\x00'
tRp1041
sg18
(lp1042
sg20
I21
sg21
(lp1043
I129
asbag2
(g10
g4
NtRp1044
(dp1045
g13
g14
(g16
S'>\x00\x00\x00\x00\x00\x00\x00'
tRp1046
sg18
(lp1047
sg20
I22
sg21
(lp1048
I134
asbag2
(g10
g4
NtRp1049
(dp1050
g13
g14
(g16
S'?\x00\x00\x00\x00\x00\x00\x00'
tRp1051
sg18
(lp1052
sg20
I23
sg21
(lp1053
sbag2
(g10
g4
NtRp1054
(dp1055
g13
g14
(g16
S'@\x00\x00\x00\x00\x00\x00\x00'
tRp1056
sg18
(lp1057
sg20
I24
sg21
(lp1058
sbag2
(g10
g4
NtRp1059
(dp1060
g13
g14
(g16
S'<\x00\x00\x00\x00\x00\x00\x00'
tRp1061
sg18
(lp1062
sg20
I25
sg21
(lp1063
I107
asbag2
(g10
g4
NtRp1064
(dp1065
g13
g14
(g16
S'A\x00\x00\x00\x00\x00\x00\x00'
tRp1066
sg18
(lp1067
sg20
I26
sg21
(lp1068
I114
asbag2
(g10
g4
NtRp1069
(dp1070
g13
g14
(g16
S'C\x00\x00\x00\x00\x00\x00\x00'
tRp1071
sg18
(lp1072
sg20
I27
sg21
(lp1073
sbag2
(g10
g4
NtRp1074
(dp1075
g13
g14
(g16
S'B\x00\x00\x00\x00\x00\x00\x00'
tRp1076
sg18
(lp1077
sg20
I28
sg21
(lp1078
sbag2
(g10
g4
NtRp1079
(dp1080
g13
g14
(g16
S'A\x00\x00\x00\x00\x00\x00\x00'
tRp1081
sg18
(lp1082
sg20
I29
sg21
(lp1083
sbag2
(g10
g4
NtRp1084
(dp1085
g13
g14
(g16
S'>\x00\x00\x00\x00\x00\x00\x00'
tRp1086
sg18
(lp1087
sg20
I30
sg21
(lp1088
sbag2
(g10
g4
NtRp1089
(dp1090
g13
g14
(g16
S';\x00\x00\x00\x00\x00\x00\x00'
tRp1091
sg18
(lp1092
sg20
I31
sg21
(lp1093
sbag2
(g10
g4
NtRp1094
(dp1095
g13
g14
(g16
S'=\x00\x00\x00\x00\x00\x00\x00'
tRp1096
sg18
(lp1097
sg20
I32
sg21
(lp1098
sbag2
(g10
g4
NtRp1099
(dp1100
g13
g14
(g16
S'?\x00\x00\x00\x00\x00\x00\x00'
tRp1101
sg18
(lp1102
sg20
I33
sg21
(lp1103
sbag2
(g10
g4
NtRp1104
(dp1105
g13
g14
(g16
S'C\x00\x00\x00\x00\x00\x00\x00'
tRp1106
sg18
(lp1107
sg20
I34
sg21
(lp1108
I126
asbag2
(g10
g4
NtRp1109
(dp1110
g13
g14
(g16
S'?\x00\x00\x00\x00\x00\x00\x00'
tRp1111
sg18
(lp1112
sg20
I35
sg21
(lp1113
sbag2
(g10
g4
NtRp1114
(dp1115
g13
g14
(g16
S':\x00\x00\x00\x00\x00\x00\x00'
tRp1116
sg18
(lp1117
sg20
I36
sg21
(lp1118
sbag2
(g10
g4
NtRp1119
(dp1120
g13
g14
(g16
S'?\x00\x00\x00\x00\x00\x00\x00'
tRp1121
sg18
(lp1122
sg20
I37
sg21
(lp1123
sbag2
(g10
g4
NtRp1124
(dp1125
g13
g14
(g16
S'@\x00\x00\x00\x00\x00\x00\x00'
tRp1126
sg18
(lp1127
sg20
I38
sg21
(lp1128
sbag2
(g10
g4
NtRp1129
(dp1130
g13
g14
(g16
S'?\x00\x00\x00\x00\x00\x00\x00'
tRp1131
sg18
(lp1132
sg20
I39
sg21
(lp1133
sbag2
(g10
g4
NtRp1134
(dp1135
g13
g14
(g16
S':\x00\x00\x00\x00\x00\x00\x00'
tRp1136
sg18
(lp1137
sg20
I40
sg21
(lp1138
sbag2
(g10
g4
NtRp1139
(dp1140
g13
g14
(g16
S'?\x00\x00\x00\x00\x00\x00\x00'
tRp1141
sg18
(lp1142
sg20
I41
sg21
(lp1143
sbag2
(g10
g4
NtRp1144
(dp1145
g13
g14
(g16
S'@\x00\x00\x00\x00\x00\x00\x00'
tRp1146
sg18
(lp1147
sg20
I42
sg21
(lp1148
sbag2
(g10
g4
NtRp1149
(dp1150
g13
g14
(g16
S'A\x00\x00\x00\x00\x00\x00\x00'
tRp1151
sg18
(lp1152
sg20
I43
sg21
(lp1153
sbag2
(g10
g4
NtRp1154
(dp1155
g13
g14
(g16
S'=\x00\x00\x00\x00\x00\x00\x00'
tRp1156
sg18
(lp1157
sg20
I44
sg21
(lp1158
I123
asbag2
(g10
g4
NtRp1159
(dp1160
g13
g14
(g16
S':\x00\x00\x00\x00\x00\x00\x00'
tRp1161
sg18
(lp1162
sg20
I45
sg21
(lp1163
sbag2
(g10
g4
NtRp1164
(dp1165
g13
g14
(g16
S';\x00\x00\x00\x00\x00\x00\x00'
tRp1166
sg18
(lp1167
sg20
I46
sg21
(lp1168
I117
asbag2
(g10
g4
NtRp1169
(dp1170
g13
g14
(g16
S'9\x00\x00\x00\x00\x00\x00\x00'
tRp1171
sg18
(lp1172
sg20
I47
sg21
(lp1173
I115
asbag2
(g10
g4
NtRp1174
(dp1175
g13
g14
(g16
S';\x00\x00\x00\x00\x00\x00\x00'
tRp1176
sg18
(lp1177
sg20
I48
sg21
(lp1178
I122
asbag2
(g10
g4
NtRp1179
(dp1180
g13
g14
(g16
S'?\x00\x00\x00\x00\x00\x00\x00'
tRp1181
sg18
(lp1182
sg20
I49
sg21
(lp1183
sbag2
(g10
g4
NtRp1184
(dp1185
g13
g14
(g16
S'=\x00\x00\x00\x00\x00\x00\x00'
tRp1186
sg18
(lp1187
sg20
I50
sg21
(lp1188
I120
asbag2
(g10
g4
NtRp1189
(dp1190
g13
g14
(g16
S';\x00\x00\x00\x00\x00\x00\x00'
tRp1191
sg18
(lp1192
sg20
I51
sg21
(lp1193
I119
asbag2
(g10
g4
NtRp1194
(dp1195
g13
g14
(g16
S'=\x00\x00\x00\x00\x00\x00\x00'
tRp1196
sg18
(lp1197
sg20
I52
sg21
(lp1198
I126
asbag2
(g10
g4
NtRp1199
(dp1200
g13
g14
(g16
S'>\x00\x00\x00\x00\x00\x00\x00'
tRp1201
sg18
(lp1202
sg20
I53
sg21
(lp1203
I124
asbag2
(g10
g4
NtRp1204
(dp1205
g13
g14
(g16
S'<\x00\x00\x00\x00\x00\x00\x00'
tRp1206
sg18
(lp1207
sg20
I54
sg21
(lp1208
I123
asbag2
(g10
g4
NtRp1209
(dp1210
g13
g14
(g16
S'>\x00\x00\x00\x00\x00\x00\x00'
tRp1211
sg18
(lp1212
sg20
I55
sg21
(lp1213
I125
asbag2
(g10
g4
NtRp1214
(dp1215
g13
g14
(g16
S'>\x00\x00\x00\x00\x00\x00\x00'
tRp1216
sg18
(lp1217
sg20
I56
sg21
(lp1218
I127
asbag2
(g10
g4
NtRp1219
(dp1220
g13
g14
(g16
S'>\x00\x00\x00\x00\x00\x00\x00'
tRp1221
sg18
(lp1222
sg20
I57
sg21
(lp1223
I127
asbag2
(g10
g4
NtRp1224
(dp1225
g13
g14
(g16
S':\x00\x00\x00\x00\x00\x00\x00'
tRp1226
sg18
(lp1227
sg20
I58
sg21
(lp1228
I121
asbag2
(g10
g4
NtRp1229
(dp1230
g13
g14
(g16
S':\x00\x00\x00\x00\x00\x00\x00'
tRp1231
sg18
(lp1232
sg20
I59
sg21
(lp1233
I113
asbag2
(g10
g4
NtRp1234
(dp1235
g13
g14
(g16
S';\x00\x00\x00\x00\x00\x00\x00'
tRp1236
sg18
(lp1237
sg20
I60
sg21
(lp1238
sbag2
(g10
g4
NtRp1239
(dp1240
g13
g14
(g16
S':\x00\x00\x00\x00\x00\x00\x00'
tRp1241
sg18
(lp1242
sg20
I61
sg21
(lp1243
sbag2
(g10
g4
NtRp1244
(dp1245
g13
g14
(g16
S'9\x00\x00\x00\x00\x00\x00\x00'
tRp1246
sg18
(lp1247
sg20
I62
sg21
(lp1248
sbag2
(g10
g4
NtRp1249
(dp1250
g13
g14
(g16
S'8\x00\x00\x00\x00\x00\x00\x00'
tRp1251
sg18
(lp1252
sg20
I63
sg21
(lp1253
I99
aI104
asbag2
(g10
g4
NtRp1254
(dp1255
g13
g14
(g16
S'8\x00\x00\x00\x00\x00\x00\x00'
tRp1256
sg18
(lp1257
sg20
I64
sg21
(lp1258
sbag2
(g10
g4
NtRp1259
(dp1260
g13
g14
(g16
S'7\x00\x00\x00\x00\x00\x00\x00'
tRp1261
sg18
(lp1262
sg20
I65
sg21
(lp1263
sbag2
(g10
g4
NtRp1264
(dp1265
g13
g14
(g16
S':\x00\x00\x00\x00\x00\x00\x00'
tRp1266
sg18
(lp1267
sg20
I66
sg21
(lp1268
sbag2
(g10
g4
NtRp1269
(dp1270
g13
g14
(g16
S'9\x00\x00\x00\x00\x00\x00\x00'
tRp1271
sg18
(lp1272
sg20
I67
sg21
(lp1273
sbag2
(g10
g4
NtRp1274
(dp1275
g13
g14
(g16
S'9\x00\x00\x00\x00\x00\x00\x00'
tRp1276
sg18
(lp1277
sg20
I68
sg21
(lp1278
sbag2
(g10
g4
NtRp1279
(dp1280
g13
g14
(g16
S':\x00\x00\x00\x00\x00\x00\x00'
tRp1281
sg18
(lp1282
sg20
I69
sg21
(lp1283
I94
asbag2
(g10
g4
NtRp1284
(dp1285
g13
g14
(g16
S'<\x00\x00\x00\x00\x00\x00\x00'
tRp1286
sg18
(lp1287
sg20
I70
sg21
(lp1288
I90
aI97
asbag2
(g10
g4
NtRp1289
(dp1290
g13
g14
(g16
S'7\x00\x00\x00\x00\x00\x00\x00'
tRp1291
sg18
(lp1292
sg20
I71
sg21
(lp1293
I97
asbag2
(g10
g4
NtRp1294
(dp1295
g13
g14
(g16
S'8\x00\x00\x00\x00\x00\x00\x00'
tRp1296
sg18
(lp1297
sg20
I72
sg21
(lp1298
I97
asbag2
(g10
g4
NtRp1299
(dp1300
g13
g14
(g16
S'9\x00\x00\x00\x00\x00\x00\x00'
tRp1301
sg18
(lp1302
sg20
I73
sg21
(lp1303
I95
asbag2
(g10
g4
NtRp1304
(dp1305
g13
g14
(g16
S'9\x00\x00\x00\x00\x00\x00\x00'
tRp1306
sg18
(lp1307
sg20
I74
sg21
(lp1308
I101
asbag2
(g10
g4
NtRp1309
(dp1310
g13
g14
(g16
S'7\x00\x00\x00\x00\x00\x00\x00'
tRp1311
sg18
(lp1312
sg20
I75
sg21
(lp1313
I98
asbag2
(g10
g4
NtRp1314
(dp1315
g13
g14
(g16
S'6\x00\x00\x00\x00\x00\x00\x00'
tRp1316
sg18
(lp1317
sg20
I76
sg21
(lp1318
I86
asbag2
(g10
g4
NtRp1319
(dp1320
g13
g14
(g16
S'6\x00\x00\x00\x00\x00\x00\x00'
tRp1321
sg18
(lp1322
sg20
I77
sg21
(lp1323
I96
asbag2
(g10
g4
NtRp1324
(dp1325
g13
g14
(g16
S'7\x00\x00\x00\x00\x00\x00\x00'
tRp1326
sg18
(lp1327
sg20
I78
sg21
(lp1328
I105
asbag2
(g10
g4
NtRp1329
(dp1330
g13
g14
(g16
S'7\x00\x00\x00\x00\x00\x00\x00'
tRp1331
sg18
(lp1332
sg20
I79
sg21
(lp1333
I96
aI112
asbag2
(g10
g4
NtRp1334
(dp1335
g13
g14
(g16
S'4\x00\x00\x00\x00\x00\x00\x00'
tRp1336
sg18
(lp1337
sg20
I80
sg21
(lp1338
I82
asbag2
(g10
g4
NtRp1339
(dp1340
g13
g14
(g16
S'8\x00\x00\x00\x00\x00\x00\x00'
tRp1341
sg18
(lp1342
sg20
I81
sg21
(lp1343
I96
asbag2
(g10
g4
NtRp1344
(dp1345
g13
g14
(g16
S'7\x00\x00\x00\x00\x00\x00\x00'
tRp1346
sg18
(lp1347
sg20
I82
sg21
(lp1348
I87
asbag2
(g10
g4
NtRp1349
(dp1350
g13
g14
(g16
S'7\x00\x00\x00\x00\x00\x00\x00'
tRp1351
sg18
(lp1352
sg20
I83
sg21
(lp1353
I93
asbag2
(g10
g4
NtRp1354
(dp1355
g13
g14
(g16
S'2\x00\x00\x00\x00\x00\x00\x00'
tRp1356
sg18
(lp1357
sg20
I84
sg21
(lp1358
I93
asbag2
(g10
g4
NtRp1359
(dp1360
g13
g14
(g16
S'7\x00\x00\x00\x00\x00\x00\x00'
tRp1361
sg18
(lp1362
sg20
I85
sg21
(lp1363
I97
aI105
asbag2
(g10
g4
NtRp1364
(dp1365
g13
g14
(g16
S'7\x00\x00\x00\x00\x00\x00\x00'
tRp1366
sg18
(lp1367
sg20
I86
sg21
(lp1368
I87
aI99
asbag2
(g10
g4
NtRp1369
(dp1370
g13
g14
(g16
S'8\x00\x00\x00\x00\x00\x00\x00'
tRp1371
sg18
(lp1372
sg20
I87
sg21
(lp1373
I114
asbag2
(g10
g4
NtRp1374
(dp1375
g13
g14
(g16
S':\x00\x00\x00\x00\x00\x00\x00'
tRp1376
sg18
(lp1377
sg20
I88
sg21
(lp1378
I105
asbag2
(g10
g4
NtRp1379
(dp1380
g13
g14
(g16
S':\x00\x00\x00\x00\x00\x00\x00'
tRp1381
sg18
(lp1382
sg20
I89
sg21
(lp1383
sbag2
(g10
g4
NtRp1384
(dp1385
g13
g14
(g16
S'9\x00\x00\x00\x00\x00\x00\x00'
tRp1386
sg18
(lp1387
sg20
I90
sg21
(lp1388
I108
asbag2
(g10
g4
NtRp1389
(dp1390
g13
g14
(g16
S'7\x00\x00\x00\x00\x00\x00\x00'
tRp1391
sg18
(lp1392
sg20
I91
sg21
(lp1393
I121
asbag2
(g10
g4
NtRp1394
(dp1395
g13
g14
(g16
S'8\x00\x00\x00\x00\x00\x00\x00'
tRp1396
sg18
(lp1397
sg20
I92
sg21
(lp1398
I106
asbag2
(g10
g4
NtRp1399
(dp1400
g13
g14
(g16
S'6\x00\x00\x00\x00\x00\x00\x00'
tRp1401
sg18
(lp1402
sg20
I93
sg21
(lp1403
I112
asbag2
(g10
g4
NtRp1404
(dp1405
g13
g14
(g16
S'4\x00\x00\x00\x00\x00\x00\x00'
tRp1406
sg18
(lp1407
sg20
I94
sg21
(lp1408
I113
asbag2
(g10
g4
NtRp1409
(dp1410
g13
g14
(g16
S'9\x00\x00\x00\x00\x00\x00\x00'
tRp1411
sg18
(lp1412
sg20
I95
sg21
(lp1413
I109
aI112
aI118
asbag2
(g10
g4
NtRp1414
(dp1415
g13
g14
(g16
S';\x00\x00\x00\x00\x00\x00\x00'
tRp1416
sg18
(lp1417
sg20
I96
sg21
(lp1418
I105
aI113
aI114
aI118
aI119
asbag2
(g10
g4
NtRp1419
(dp1420
g13
g14
(g16
S'8\x00\x00\x00\x00\x00\x00\x00'
tRp1421
sg18
(lp1422
sg20
I97
sg21
(lp1423
I107
asbag2
(g10
g4
NtRp1424
(dp1425
g13
g14
(g16
S'9\x00\x00\x00\x00\x00\x00\x00'
tRp1426
sg18
(lp1427
sg20
I98
sg21
(lp1428
I91
aI97
aI100
aI102
asbag2
(g10
g4
NtRp1429
(dp1430
g13
g14
(g16
S'8\x00\x00\x00\x00\x00\x00\x00'
tRp1431
sg18
(lp1432
sg20
I99
sg21
(lp1433
I94
aI116
aI119
asbag2
(g10
g4
NtRp1434
(dp1435
g13
g14
(g16
S'<\x00\x00\x00\x00\x00\x00\x00'
tRp1436
sg18
(lp1437
sg20
I100
sg21
(lp1438
I119
aI130
asbag2
(g10
g4
NtRp1439
(dp1440
g13
g14
(g16
S'=\x00\x00\x00\x00\x00\x00\x00'
tRp1441
sg18
(lp1442
sg20
I101
sg21
(lp1443
I115
aI121
aI126
asbag2
(g10
g4
NtRp1444
(dp1445
g13
g14
(g16
S'@\x00\x00\x00\x00\x00\x00\x00'
tRp1446
sg18
(lp1447
sg20
I102
sg21
(lp1448
I110
aI116
aI117
asbag2
(g10
g4
NtRp1449
(dp1450
g13
g14
(g16
S';\x00\x00\x00\x00\x00\x00\x00'
tRp1451
sg18
(lp1452
sg20
I103
sg21
(lp1453
I107
aI113
aI116
aI117
aI118
asbag2
(g10
g4
NtRp1454
(dp1455
g13
g14
(g16
S'<\x00\x00\x00\x00\x00\x00\x00'
tRp1456
sg18
(lp1457
sg20
I104
sg21
(lp1458
I109
aI113
aI119
aI120
aI123
asbag2
(g10
g4
NtRp1459
(dp1460
g13
g14
(g16
S':\x00\x00\x00\x00\x00\x00\x00'
tRp1461
sg18
(lp1462
sg20
I105
sg21
(lp1463
I112
aI120
aI129
asbag2
(g10
g4
NtRp1464
(dp1465
g13
g14
(g16
S'<\x00\x00\x00\x00\x00\x00\x00'
tRp1466
sg18
(lp1467
sg20
I106
sg21
(lp1468
I112
aI120
aI121
aI124
asbag2
(g10
g4
NtRp1469
(dp1470
g13
g14
(g16
S'>\x00\x00\x00\x00\x00\x00\x00'
tRp1471
sg18
(lp1472
sg20
I107
sg21
(lp1473
I104
aI108
aI115
asbag2
(g10
g4
NtRp1474
(dp1475
g13
g14
(g16
S'>\x00\x00\x00\x00\x00\x00\x00'
tRp1476
sg18
(lp1477
sg20
I108
sg21
(lp1478
I107
aI113
aI118
asbag2
(g10
g4
NtRp1479
(dp1480
g13
g14
(g16
S'8\x00\x00\x00\x00\x00\x00\x00'
tRp1481
sg18
(lp1482
sg20
I109
sg21
(lp1483
I103
aI109
asbag2
(g10
g4
NtRp1484
(dp1485
g13
g14
(g16
S':\x00\x00\x00\x00\x00\x00\x00'
tRp1486
sg18
(lp1487
sg20
I110
sg21
(lp1488
I106
aI110
aI116
asbag2
(g10
g4
NtRp1489
(dp1490
g13
g14
(g16
S'=\x00\x00\x00\x00\x00\x00\x00'
tRp1491
sg18
(lp1492
sg20
I111
sg21
(lp1493
I105
aI111
asbag2
(g10
g4
NtRp1494
(dp1495
g13
g14
(g16
S';\x00\x00\x00\x00\x00\x00\x00'
tRp1496
sg18
(lp1497
sg20
I112
sg21
(lp1498
I98
aI104
aI110
asbag2
(g10
g4
NtRp1499
(dp1500
g13
g14
(g16
S'?\x00\x00\x00\x00\x00\x00\x00'
tRp1501
sg18
(lp1502
sg20
I113
sg21
(lp1503
I107
aI114
aI122
aI125
aI126
asbag2
(g10
g4
NtRp1504
(dp1505
g13
g14
(g16
S'9\x00\x00\x00\x00\x00\x00\x00'
tRp1506
sg18
(lp1507
sg20
I114
sg21
(lp1508
I88
aI91
aI97
aI99
asbag2
(g10
g4
NtRp1509
(dp1510
g13
g14
(g16
S'9\x00\x00\x00\x00\x00\x00\x00'
tRp1511
sg18
(lp1512
sg20
I115
sg21
(lp1513
I100
aI108
aI116
asbag2
(g10
g4
NtRp1514
(dp1515
g13
g14
(g16
S'7\x00\x00\x00\x00\x00\x00\x00'
tRp1516
sg18
(lp1517
sg20
I116
sg21
(lp1518
I81
aI90
aI97
asbag2
(g10
g4
NtRp1519
(dp1520
g13
g14
(g16
S'@\x00\x00\x00\x00\x00\x00\x00'
tRp1521
sg18
(lp1522
sg20
I117
sg21
(lp1523
I96
aI102
aI112
aI113
asbag2
(g10
g4
NtRp1524
(dp1525
g13
g14
(g16
S'?\x00\x00\x00\x00\x00\x00\x00'
tRp1526
sg18
(lp1527
sg20
I118
sg21
(lp1528
I100
aI103
aI107
aI109
asbag2
(g10
g4
NtRp1529
(dp1530
g13
g14
(g16
S'A\x00\x00\x00\x00\x00\x00\x00'
tRp1531
sg18
(lp1532
sg20
I119
sg21
(lp1533
I99
aI111
asbag2
(g10
g4
NtRp1534
(dp1535
g13
g14
(g16
S'?\x00\x00\x00\x00\x00\x00\x00'
tRp1536
sg18
(lp1537
sg20
I120
sg21
(lp1538
I91
aI95
aI97
aI109
aI110
asbag2
(g10
g4
NtRp1539
(dp1540
g13
g14
(g16
S'<\x00\x00\x00\x00\x00\x00\x00'
tRp1541
sg18
(lp1542
sg20
I121
sg21
(lp1543
I91
aI96
aI97
aI104
aI115
asbag2
(g10
g4
NtRp1544
(dp1545
g13
g14
(g16
S'<\x00\x00\x00\x00\x00\x00\x00'
tRp1546
sg18
(lp1547
sg20
I122
sg21
(lp1548
I91
aI98
aI99
aI106
asbag2
(g10
g4
NtRp1549
(dp1550
g13
g14
(g16
S':\x00\x00\x00\x00\x00\x00\x00'
tRp1551
sg18
(lp1552
sg20
I123
sg21
(lp1553
I93
aI100
aI102
aI106
aI108
asbag2
(g10
g4
NtRp1554
(dp1555
g13
g14
(g16
S';\x00\x00\x00\x00\x00\x00\x00'
tRp1556
sg18
(lp1557
sg20
I124
sg21
(lp1558
I98
aI107
aI108
aI111
asbag2
(g10
g4
NtRp1559
(dp1560
g13
g14
(g16
S'=\x00\x00\x00\x00\x00\x00\x00'
tRp1561
sg18
(lp1562
sg20
I125
sg21
(lp1563
I97
aI101
aI109
asbag2
(g10
g4
NtRp1564
(dp1565
g13
g14
(g16
S';\x00\x00\x00\x00\x00\x00\x00'
tRp1566
sg18
(lp1567
sg20
I126
sg21
(lp1568
I96
aI98
aI104
aI105
aI107
aI111
asbag2
(g10
g4
NtRp1569
(dp1570
g13
g14
(g16
S'7\x00\x00\x00\x00\x00\x00\x00'
tRp1571
sg18
(lp1572
sg20
I127
sg21
(lp1573
I98
aI107
aI109
aI113
asbag2
(g10
g4
NtRp1574
(dp1575
g13
g14
(g16
S'7\x00\x00\x00\x00\x00\x00\x00'
tRp1576
sg18
(lp1577
sg20
I128
sg21
(lp1578
I99
aI103
aI106
aI110
asbag2
(g10
g4
NtRp1579
(dp1580
g13
g14
(g16
S':\x00\x00\x00\x00\x00\x00\x00'
tRp1581
sg18
(lp1582
sg20
I129
sg21
(lp1583
I102
aI109
aI115
asbag2
(g10
g4
NtRp1584
(dp1585
g13
g14
(g16
S'9\x00\x00\x00\x00\x00\x00\x00'
tRp1586
sg18
(lp1587
sg20
I130
sg21
(lp1588
I96
aI103
aI106
aI110
asbag2
(g10
g4
NtRp1589
(dp1590
g13
g14
(g16
S':\x00\x00\x00\x00\x00\x00\x00'
tRp1591
sg18
(lp1592
sg20
I131
sg21
(lp1593
I106
aI113
aI114
aI115
aI118
asbag2
(g10
g4
NtRp1594
(dp1595
g13
g14
(g16
S'7\x00\x00\x00\x00\x00\x00\x00'
tRp1596
sg18
(lp1597
sg20
I132
sg21
(lp1598
I98
aI106
aI108
asbag2
(g10
g4
NtRp1599
(dp1600
g13
g14
(g16
S'8\x00\x00\x00\x00\x00\x00\x00'
tRp1601
sg18
(lp1602
sg20
I133
sg21
(lp1603
I105
aI106
ag14
(g16
S'p\x00\x00\x00\x00\x00\x00\x00'
tRp1604
asbag2
(g10
g4
NtRp1605
(dp1606
g13
g14
(g16
S';\x00\x00\x00\x00\x00\x00\x00'
tRp1607
sg18
(lp1608
sg20
I134
sg21
(lp1609
I102
aI104
aI110
aI112
asbag2
(g10
g4
NtRp1610
(dp1611
g13
g14
(g16
S'>\x00\x00\x00\x00\x00\x00\x00'
tRp1612
sg18
(lp1613
sg20
I135
sg21
(lp1614
I108
aI109
aI113
aI114
aI119
asbag2
(g10
g4
NtRp1615
(dp1616
g13
g14
(g16
S';\x00\x00\x00\x00\x00\x00\x00'
tRp1617
sg18
(lp1618
sg20
I136
sg21
(lp1619
I102
aI103
aI106
asbag2
(g10
g4
NtRp1620
(dp1621
g13
g14
(g16
S'8\x00\x00\x00\x00\x00\x00\x00'
tRp1622
sg18
(lp1623
sg20
I137
sg21
(lp1624
I118
aI122
aI126
aI127
aI129
asbag2
(g10
g4
NtRp1625
(dp1626
g13
g14
(g16
S'=\x00\x00\x00\x00\x00\x00\x00'
tRp1627
sg18
(lp1628
sg20
I138
sg21
(lp1629
I111
aI113
aI117
aI123
asbag2
(g10
g4
NtRp1630
(dp1631
g13
g14
(g16
S'?\x00\x00\x00\x00\x00\x00\x00'
tRp1632
sg18
(lp1633
sg20
I139
sg21
(lp1634
I111
aI114
aI121
asbag2
(g10
g4
NtRp1635
(dp1636
g13
g14
(g16
S'?\x00\x00\x00\x00\x00\x00\x00'
tRp1637
sg18
(lp1638
sg20
I140
sg21
(lp1639
I110
aI113
aI115
aI121
aI127
ag14
(g16
S'|\x00\x00\x00\x00\x00\x00\x00'
tRp1640
asbag2
(g10
g4
NtRp1641
(dp1642
g13
g14
(g16
S'B\x00\x00\x00\x00\x00\x00\x00'
tRp1643
sg18
(lp1644
sg20
I141
sg21
(lp1645
I119
aI123
aI124
aI132
ag14
(g16
S'\x87\x00\x00\x00\x00\x00\x00\x00'
tRp1646
asbag2
(g10
g4
NtRp1647
(dp1648
g13
g14
(g16
S'B\x00\x00\x00\x00\x00\x00\x00'
tRp1649
sg18
(lp1650
sg20
I142
sg21
(lp1651
I107
aI119
ag14
(g16
S't\x00\x00\x00\x00\x00\x00\x00'
tRp1652
asbag2
(g10
g4
NtRp1653
(dp1654
g13
g14
(g16
S'@\x00\x00\x00\x00\x00\x00\x00'
tRp1655
sg18
(lp1656
sg20
I143
sg21
(lp1657
I105
ag14
(g16
S'q\x00\x00\x00\x00\x00\x00\x00'
tRp1658
asbag2
(g10
g4
NtRp1659
(dp1660
g13
g14
(g16
S'A\x00\x00\x00\x00\x00\x00\x00'
tRp1661
sg18
(lp1662
sg20
I144
sg21
(lp1663
I104
aI110
ag14
(g16
S'r\x00\x00\x00\x00\x00\x00\x00'
tRp1664
asbag2
(g10
g4
NtRp1665
(dp1666
g13
g14
(g16
S'B\x00\x00\x00\x00\x00\x00\x00'
tRp1667
sg18
(lp1668
sg20
I145
sg21
(lp1669
I89
aI98
aI102
aI106
asbag2
(g10
g4
NtRp1670
(dp1671
g13
g14
(g16
S'E\x00\x00\x00\x00\x00\x00\x00'
tRp1672
sg18
(lp1673
sg20
I146
sg21
(lp1674
I92
aI97
asbag2
(g10
g4
NtRp1675
(dp1676
g13
g14
(g16
S'C\x00\x00\x00\x00\x00\x00\x00'
tRp1677
sg18
(lp1678
sg20
I147
sg21
(lp1679
I110
aI118
aI120
aI124
asbag2
(g10
g4
NtRp1680
(dp1681
g13
g14
(g16
S'C\x00\x00\x00\x00\x00\x00\x00'
tRp1682
sg18
(lp1683
sg20
I148
sg21
(lp1684
I104
aI113
aI115
aI120
asbag2
(g10
g4
NtRp1685
(dp1686
g13
g14
(g16
S'=\x00\x00\x00\x00\x00\x00\x00'
tRp1687
sg18
(lp1688
sg20
I149
sg21
(lp1689
I98
aI107
aI109
aI110
aI116
asbag2
(g10
g4
NtRp1690
(dp1691
g13
g14
(g16
S'F\x00\x00\x00\x00\x00\x00\x00'
tRp1692
sg18
(lp1693
sg20
I150
sg21
(lp1694
I94
aI103
aI105
aI109
asbag2
(g10
g4
NtRp1695
(dp1696
g13
g14
(g16
S'G\x00\x00\x00\x00\x00\x00\x00'
tRp1697
sg18
(lp1698
sg20
I151
sg21
(lp1699
I102
aI107
aI110
aI111
aI115
aI117
asbag2
(g10
g4
NtRp1700
(dp1701
g13
g14
(g16
S'C\x00\x00\x00\x00\x00\x00\x00'
tRp1702
sg18
(lp1703
sg20
I152
sg21
(lp1704
I92
aI106
aI107
asbag2
(g10
g4
NtRp1705
(dp1706
g13
g14
(g16
S'>\x00\x00\x00\x00\x00\x00\x00'
tRp1707
sg18
(lp1708
sg20
I153
sg21
(lp1709
I93
aI100
aI104
aI106
aI109
asbag2
(g10
g4
NtRp1710
(dp1711
g13
g14
(g16
S'?\x00\x00\x00\x00\x00\x00\x00'
tRp1712
sg18
(lp1713
sg20
I154
sg21
(lp1714
I90
aI103
asbag2
(g10
g4
NtRp1715
(dp1716
g13
g14
(g16
S'>\x00\x00\x00\x00\x00\x00\x00'
tRp1717
sg18
(lp1718
sg20
I155
sg21
(lp1719
I96
aI105
aI108
aI112
asbag2
(g10
g4
NtRp1720
(dp1721
g13
g14
(g16
S':\x00\x00\x00\x00\x00\x00\x00'
tRp1722
sg18
(lp1723
sg20
I156
sg21
(lp1724
I100
aI105
aI109
aI111
aI113
asbag2
(g10
g4
NtRp1725
(dp1726
g13
g14
(g16
S'@\x00\x00\x00\x00\x00\x00\x00'
tRp1727
sg18
(lp1728
sg20
I157
sg21
(lp1729
I94
aI98
aI100
asbag2
(g10
g4
NtRp1730
(dp1731
g13
g14
(g16
S'=\x00\x00\x00\x00\x00\x00\x00'
tRp1732
sg18
(lp1733
sg20
I158
sg21
(lp1734
I106
aI111
aI115
asbag2
(g10
g4
NtRp1735
(dp1736
g13
g14
(g16
S'@\x00\x00\x00\x00\x00\x00\x00'
tRp1737
sg18
(lp1738
sg20
I159
sg21
(lp1739
I99
aI101
aI105
aI108
asbag2
(g10
g4
NtRp1740
(dp1741
g13
g14
(g16
S'=\x00\x00\x00\x00\x00\x00\x00'
tRp1742
sg18
(lp1743
sg20
I160
sg21
(lp1744
I103
aI106
aI110
aI114
asbag2
(g10
g4
NtRp1745
(dp1746
g13
g14
(g16
S'@\x00\x00\x00\x00\x00\x00\x00'
tRp1747
sg18
(lp1748
sg20
I161
sg21
(lp1749
I103
aI106
aI109
aI111
aI113
asbag2
(g10
g4
NtRp1750
(dp1751
g13
g14
(g16
S';\x00\x00\x00\x00\x00\x00\x00'
tRp1752
sg18
(lp1753
sg20
I162
sg21
(lp1754
I102
aI106
aI107
ag14
(g16
S'a\x00\x00\x00\x00\x00\x00\x00'
tRp1755
asbag2
(g10
g4
NtRp1756
(dp1757
g13
g14
(g16
S'=\x00\x00\x00\x00\x00\x00\x00'
tRp1758
sg18
(lp1759
sg20
I163
sg21
(lp1760
I103
aI114
aI116
asbag2
(g10
g4
NtRp1761
(dp1762
g13
g14
(g16
S'?\x00\x00\x00\x00\x00\x00\x00'
tRp1763
sg18
(lp1764
sg20
I164
sg21
(lp1765
I102
aI108
aI115
ag14
(g16
S'q\x00\x00\x00\x00\x00\x00\x00'
tRp1766
asbag2
(g10
g4
NtRp1767
(dp1768
g13
g14
(g16
S'K\x00\x00\x00\x00\x00\x00\x00'
tRp1769
sg18
(lp1770
sg20
I165
sg21
(lp1771
I84
aI91
aI100
aI102
asbag2
(g10
g4
NtRp1772
(dp1773
g13
g14
(g16
S'J\x00\x00\x00\x00\x00\x00\x00'
tRp1774
sg18
(lp1775
sg20
I166
sg21
(lp1776
I76
aI83
aI87
asbasg38
I0
sbtp1777
a(S'q'
g2
(g3
g4
NtRp1778
(dp1779
g7
I6
sg8
(lp1780
g2
(g10
g4
NtRp1781
(dp1782
g13
g14
(g16
S'<\x00\x00\x00\x00\x00\x00\x00'
tRp1783
sg18
(lp1784
sg20
I0
sg21
(lp1785
I129
aI143
asbag2
(g10
g4
NtRp1786
(dp1787
g13
g14
(g16
S'?\x00\x00\x00\x00\x00\x00\x00'
tRp1788
sg18
(lp1789
sg20
I1
sg21
(lp1790
I118
aI135
aI138
asbag2
(g10
g4
NtRp1791
(dp1792
g13
g14
(g16
S'?\x00\x00\x00\x00\x00\x00\x00'
tRp1793
sg18
(lp1794
sg20
I2
sg21
(lp1795
I131
ag14
(g16
S'\x81\x00\x00\x00\x00\x00\x00\x00'
tRp1796
asbag2
(g10
g4
NtRp1797
(dp1798
g13
g14
(g16
S'=\x00\x00\x00\x00\x00\x00\x00'
tRp1799
sg18
(lp1800
sg20
I3
sg21
(lp1801
I115
aI125
aI129
asbag2
(g10
g4
NtRp1802
(dp1803
g13
g14
(g16
S'B\x00\x00\x00\x00\x00\x00\x00'
tRp1804
sg18
(lp1805
sg20
I4
sg21
(lp1806
I125
asbag2
(g10
g4
NtRp1807
(dp1808
g13
g14
(g16
S'D\x00\x00\x00\x00\x00\x00\x00'
tRp1809
sg18
(lp1810
sg20
I5
sg21
(lp1811
I117
asbag2
(g10
g4
NtRp1812
(dp1813
g13
g14
(g16
S'C\x00\x00\x00\x00\x00\x00\x00'
tRp1814
sg18
(lp1815
sg20
I6
sg21
(lp1816
I122
asbasg38
I0
sbtp1817
a(S'w'
g2
(g3
g4
NtRp1818
(dp1819
g7
I211
sg8
(lp1820
g2
(g10
g4
NtRp1821
(dp1822
g13
g14
(g16
S'=\x00\x00\x00\x00\x00\x00\x00'
tRp1823
sg18
(lp1824
sg20
I0
sg21
(lp1825
I133
aI134
aI144
asbag2
(g10
g4
NtRp1826
(dp1827
g13
g14
(g16
S'@\x00\x00\x00\x00\x00\x00\x00'
tRp1828
sg18
(lp1829
sg20
I1
sg21
(lp1830
I128
aI133
aI137
asbag2
(g10
g4
NtRp1831
(dp1832
g13
g14
(g16
S'@\x00\x00\x00\x00\x00\x00\x00'
tRp1833
sg18
(lp1834
sg20
I2
sg21
(lp1835
I128
aI132
aI135
asbag2
(g10
g4
NtRp1836
(dp1837
g13
g14
(g16
S'?\x00\x00\x00\x00\x00\x00\x00'
tRp1838
sg18
(lp1839
sg20
I3
sg21
(lp1840
I123
aI133
asbag2
(g10
g4
NtRp1841
(dp1842
g13
g14
(g16
S'>\x00\x00\x00\x00\x00\x00\x00'
tRp1843
sg18
(lp1844
sg20
I4
sg21
(lp1845
I115
aI117
aI124
asbag2
(g10
g4
NtRp1846
(dp1847
g13
g14
(g16
S'?\x00\x00\x00\x00\x00\x00\x00'
tRp1848
sg18
(lp1849
sg20
I5
sg21
(lp1850
I111
aI115
asbag2
(g10
g4
NtRp1851
(dp1852
g13
g14
(g16
S'A\x00\x00\x00\x00\x00\x00\x00'
tRp1853
sg18
(lp1854
sg20
I6
sg21
(lp1855
I124
aI126
asbag2
(g10
g4
NtRp1856
(dp1857
g13
g14
(g16
S'@\x00\x00\x00\x00\x00\x00\x00'
tRp1858
sg18
(lp1859
sg20
I7
sg21
(lp1860
I118
asbag2
(g10
g4
NtRp1861
(dp1862
g13
g14
(g16
S'A\x00\x00\x00\x00\x00\x00\x00'
tRp1863
sg18
(lp1864
sg20
I8
sg21
(lp1865
I123
asbag2
(g10
g4
NtRp1866
(dp1867
g13
g14
(g16
S'C\x00\x00\x00\x00\x00\x00\x00'
tRp1868
sg18
(lp1869
sg20
I9
sg21
(lp1870
I142
asbag2
(g10
g4
NtRp1871
(dp1872
g13
g14
(g16
S'F\x00\x00\x00\x00\x00\x00\x00'
tRp1873
sg18
(lp1874
sg20
I10
sg21
(lp1875
I132
asbag2
(g10
g4
NtRp1876
(dp1877
g13
g14
(g16
S'C\x00\x00\x00\x00\x00\x00\x00'
tRp1878
sg18
(lp1879
sg20
I11
sg21
(lp1880
I125
aI127
asbag2
(g10
g4
NtRp1881
(dp1882
g13
g14
(g16
S'@\x00\x00\x00\x00\x00\x00\x00'
tRp1883
sg18
(lp1884
sg20
I12
sg21
(lp1885
I132
asbag2
(g10
g4
NtRp1886
(dp1887
g13
g14
(g16
S'@\x00\x00\x00\x00\x00\x00\x00'
tRp1888
sg18
(lp1889
sg20
I13
sg21
(lp1890
sbag2
(g10
g4
NtRp1891
(dp1892
g13
g14
(g16
S'@\x00\x00\x00\x00\x00\x00\x00'
tRp1893
sg18
(lp1894
sg20
I14
sg21
(lp1895
sbag2
(g10
g4
NtRp1896
(dp1897
g13
g14
(g16
S'<\x00\x00\x00\x00\x00\x00\x00'
tRp1898
sg18
(lp1899
sg20
I15
sg21
(lp1900
sbag2
(g10
g4
NtRp1901
(dp1902
g13
g14
(g16
S'=\x00\x00\x00\x00\x00\x00\x00'
tRp1903
sg18
(lp1904
sg20
I16
sg21
(lp1905
I95
asbag2
(g10
g4
NtRp1906
(dp1907
g13
g14
(g16
S'A\x00\x00\x00\x00\x00\x00\x00'
tRp1908
sg18
(lp1909
sg20
I17
sg21
(lp1910
I100
asbag2
(g10
g4
NtRp1911
(dp1912
g13
g14
(g16
S'B\x00\x00\x00\x00\x00\x00\x00'
tRp1913
sg18
(lp1914
sg20
I18
sg21
(lp1915
I107
asbag2
(g10
g4
NtRp1916
(dp1917
g13
g14
(g16
S'@\x00\x00\x00\x00\x00\x00\x00'
tRp1918
sg18
(lp1919
sg20
I19
sg21
(lp1920
I102
asbag2
(g10
g4
NtRp1921
(dp1922
g13
g14
(g16
S'<\x00\x00\x00\x00\x00\x00\x00'
tRp1923
sg18
(lp1924
sg20
I20
sg21
(lp1925
I116
asbag2
(g10
g4
NtRp1926
(dp1927
g13
g14
(g16
S'=\x00\x00\x00\x00\x00\x00\x00'
tRp1928
sg18
(lp1929
sg20
I21
sg21
(lp1930
I121
aI126
ag14
(g16
S'z\x00\x00\x00\x00\x00\x00\x00'
tRp1931
asbag2
(g10
g4
NtRp1932
(dp1933
g13
g14
(g16
S'=\x00\x00\x00\x00\x00\x00\x00'
tRp1934
sg18
(lp1935
sg20
I22
sg21
(lp1936
I127
aI131
asbag2
(g10
g4
NtRp1937
(dp1938
g13
g14
(g16
S'>\x00\x00\x00\x00\x00\x00\x00'
tRp1939
sg18
(lp1940
sg20
I23
sg21
(lp1941
I113
aI116
asbag2
(g10
g4
NtRp1942
(dp1943
g13
g14
(g16
S'A\x00\x00\x00\x00\x00\x00\x00'
tRp1944
sg18
(lp1945
sg20
I24
sg21
(lp1946
I114
aI115
asbag2
(g10
g4
NtRp1947
(dp1948
g13
g14
(g16
S'>\x00\x00\x00\x00\x00\x00\x00'
tRp1949
sg18
(lp1950
sg20
I25
sg21
(lp1951
sbag2
(g10
g4
NtRp1952
(dp1953
g13
g14
(g16
S'C\x00\x00\x00\x00\x00\x00\x00'
tRp1954
sg18
(lp1955
sg20
I26
sg21
(lp1956
I106
aI107
asbag2
(g10
g4
NtRp1957
(dp1958
g13
g14
(g16
S'D\x00\x00\x00\x00\x00\x00\x00'
tRp1959
sg18
(lp1960
sg20
I27
sg21
(lp1961
I116
aI117
asbag2
(g10
g4
NtRp1962
(dp1963
g13
g14
(g16
S'D\x00\x00\x00\x00\x00\x00\x00'
tRp1964
sg18
(lp1965
sg20
I28
sg21
(lp1966
I121
aI122
asbag2
(g10
g4
NtRp1967
(dp1968
g13
g14
(g16
S'B\x00\x00\x00\x00\x00\x00\x00'
tRp1969
sg18
(lp1970
sg20
I29
sg21
(lp1971
I121
aI122
asbag2
(g10
g4
NtRp1972
(dp1973
g13
g14
(g16
S'?\x00\x00\x00\x00\x00\x00\x00'
tRp1974
sg18
(lp1975
sg20
I30
sg21
(lp1976
I118
aI123
asbag2
(g10
g4
NtRp1977
(dp1978
g13
g14
(g16
S'@\x00\x00\x00\x00\x00\x00\x00'
tRp1979
sg18
(lp1980
sg20
I31
sg21
(lp1981
I118
aI120
aI121
asbag2
(g10
g4
NtRp1982
(dp1983
g13
g14
(g16
S'A\x00\x00\x00\x00\x00\x00\x00'
tRp1984
sg18
(lp1985
sg20
I32
sg21
(lp1986
I119
aI121
aI125
aI127
asbag2
(g10
g4
NtRp1987
(dp1988
g13
g14
(g16
S'C\x00\x00\x00\x00\x00\x00\x00'
tRp1989
sg18
(lp1990
sg20
I33
sg21
(lp1991
I120
aI125
asbag2
(g10
g4
NtRp1992
(dp1993
g13
g14
(g16
S'G\x00\x00\x00\x00\x00\x00\x00'
tRp1994
sg18
(lp1995
sg20
I34
sg21
(lp1996
I132
asbag2
(g10
g4
NtRp1997
(dp1998
g13
g14
(g16
S'E\x00\x00\x00\x00\x00\x00\x00'
tRp1999
sg18
(lp2000
sg20
I35
sg21
(lp2001
sbag2
(g10
g4
NtRp2002
(dp2003
g13
g14
(g16
S'@\x00\x00\x00\x00\x00\x00\x00'
tRp2004
sg18
(lp2005
sg20
I36
sg21
(lp2006
I114
asbag2
(g10
g4
NtRp2007
(dp2008
g13
g14
(g16
S'E\x00\x00\x00\x00\x00\x00\x00'
tRp2009
sg18
(lp2010
sg20
I37
sg21
(lp2011
I112
asbag2
(g10
g4
NtRp2012
(dp2013
g13
g14
(g16
S'C\x00\x00\x00\x00\x00\x00\x00'
tRp2014
sg18
(lp2015
sg20
I38
sg21
(lp2016
I134
asbag2
(g10
g4
NtRp2017
(dp2018
g13
g14
(g16
S'B\x00\x00\x00\x00\x00\x00\x00'
tRp2019
sg18
(lp2020
sg20
I39
sg21
(lp2021
sbag2
(g10
g4
NtRp2022
(dp2023
g13
g14
(g16
S'?\x00\x00\x00\x00\x00\x00\x00'
tRp2024
sg18
(lp2025
sg20
I40
sg21
(lp2026
I115
asbag2
(g10
g4
NtRp2027
(dp2028
g13
g14
(g16
S'B\x00\x00\x00\x00\x00\x00\x00'
tRp2029
sg18
(lp2030
sg20
I41
sg21
(lp2031
I124
asbag2
(g10
g4
NtRp2032
(dp2033
g13
g14
(g16
S'C\x00\x00\x00\x00\x00\x00\x00'
tRp2034
sg18
(lp2035
sg20
I42
sg21
(lp2036
I109
asbag2
(g10
g4
NtRp2037
(dp2038
g13
g14
(g16
S'D\x00\x00\x00\x00\x00\x00\x00'
tRp2039
sg18
(lp2040
sg20
I43
sg21
(lp2041
sbag2
(g10
g4
NtRp2042
(dp2043
g13
g14
(g16
S'A\x00\x00\x00\x00\x00\x00\x00'
tRp2044
sg18
(lp2045
sg20
I44
sg21
(lp2046
sbag2
(g10
g4
NtRp2047
(dp2048
g13
g14
(g16
S'>\x00\x00\x00\x00\x00\x00\x00'
tRp2049
sg18
(lp2050
sg20
I45
sg21
(lp2051
I111
asbag2
(g10
g4
NtRp2052
(dp2053
g13
g14
(g16
S'>\x00\x00\x00\x00\x00\x00\x00'
tRp2054
sg18
(lp2055
sg20
I46
sg21
(lp2056
I121
asbag2
(g10
g4
NtRp2057
(dp2058
g13
g14
(g16
S':\x00\x00\x00\x00\x00\x00\x00'
tRp2059
sg18
(lp2060
sg20
I47
sg21
(lp2061
sbag2
(g10
g4
NtRp2062
(dp2063
g13
g14
(g16
S'=\x00\x00\x00\x00\x00\x00\x00'
tRp2064
sg18
(lp2065
sg20
I48
sg21
(lp2066
sbag2
(g10
g4
NtRp2067
(dp2068
g13
g14
(g16
S'A\x00\x00\x00\x00\x00\x00\x00'
tRp2069
sg18
(lp2070
sg20
I49
sg21
(lp2071
sbag2
(g10
g4
NtRp2072
(dp2073
g13
g14
(g16
S'@\x00\x00\x00\x00\x00\x00\x00'
tRp2074
sg18
(lp2075
sg20
I50
sg21
(lp2076
I118
asbag2
(g10
g4
NtRp2077
(dp2078
g13
g14
(g16
S'>\x00\x00\x00\x00\x00\x00\x00'
tRp2079
sg18
(lp2080
sg20
I51
sg21
(lp2081
sbag2
(g10
g4
NtRp2082
(dp2083
g13
g14
(g16
S'?\x00\x00\x00\x00\x00\x00\x00'
tRp2084
sg18
(lp2085
sg20
I52
sg21
(lp2086
sbag2
(g10
g4
NtRp2087
(dp2088
g13
g14
(g16
S'@\x00\x00\x00\x00\x00\x00\x00'
tRp2089
sg18
(lp2090
sg20
I53
sg21
(lp2091
sbag2
(g10
g4
NtRp2092
(dp2093
g13
g14
(g16
S'>\x00\x00\x00\x00\x00\x00\x00'
tRp2094
sg18
(lp2095
sg20
I54
sg21
(lp2096
sbag2
(g10
g4
NtRp2097
(dp2098
g13
g14
(g16
S'?\x00\x00\x00\x00\x00\x00\x00'
tRp2099
sg18
(lp2100
sg20
I55
sg21
(lp2101
sbag2
(g10
g4
NtRp2102
(dp2103
g13
g14
(g16
S'@\x00\x00\x00\x00\x00\x00\x00'
tRp2104
sg18
(lp2105
sg20
I56
sg21
(lp2106
I121
asbag2
(g10
g4
NtRp2107
(dp2108
g13
g14
(g16
S'@\x00\x00\x00\x00\x00\x00\x00'
tRp2109
sg18
(lp2110
sg20
I57
sg21
(lp2111
sbag2
(g10
g4
NtRp2112
(dp2113
g13
g14
(g16
S';\x00\x00\x00\x00\x00\x00\x00'
tRp2114
sg18
(lp2115
sg20
I58
sg21
(lp2116
sbag2
(g10
g4
NtRp2117
(dp2118
g13
g14
(g16
S'>\x00\x00\x00\x00\x00\x00\x00'
tRp2119
sg18
(lp2120
sg20
I59
sg21
(lp2121
I126
asbag2
(g10
g4
NtRp2122
(dp2123
g13
g14
(g16
S'>\x00\x00\x00\x00\x00\x00\x00'
tRp2124
sg18
(lp2125
sg20
I60
sg21
(lp2126
I104
aI107
aI111
asbag2
(g10
g4
NtRp2127
(dp2128
g13
g14
(g16
S'=\x00\x00\x00\x00\x00\x00\x00'
tRp2129
sg18
(lp2130
sg20
I61
sg21
(lp2131
I114
aI117
asbag2
(g10
g4
NtRp2132
(dp2133
g13
g14
(g16
S';\x00\x00\x00\x00\x00\x00\x00'
tRp2134
sg18
(lp2135
sg20
I62
sg21
(lp2136
I112
aI114
asbag2
(g10
g4
NtRp2137
(dp2138
g13
g14
(g16
S':\x00\x00\x00\x00\x00\x00\x00'
tRp2139
sg18
(lp2140
sg20
I63
sg21
(lp2141
I112
asbag2
(g10
g4
NtRp2142
(dp2143
g13
g14
(g16
S':\x00\x00\x00\x00\x00\x00\x00'
tRp2144
sg18
(lp2145
sg20
I64
sg21
(lp2146
sbag2
(g10
g4
NtRp2147
(dp2148
g13
g14
(g16
S'9\x00\x00\x00\x00\x00\x00\x00'
tRp2149
sg18
(lp2150
sg20
I65
sg21
(lp2151
sbag2
(g10
g4
NtRp2152
(dp2153
g13
g14
(g16
S'<\x00\x00\x00\x00\x00\x00\x00'
tRp2154
sg18
(lp2155
sg20
I66
sg21
(lp2156
sbag2
(g10
g4
NtRp2157
(dp2158
g13
g14
(g16
S';\x00\x00\x00\x00\x00\x00\x00'
tRp2159
sg18
(lp2160
sg20
I67
sg21
(lp2161
sbag2
(g10
g4
NtRp2162
(dp2163
g13
g14
(g16
S';\x00\x00\x00\x00\x00\x00\x00'
tRp2164
sg18
(lp2165
sg20
I68
sg21
(lp2166
sbag2
(g10
g4
NtRp2167
(dp2168
g13
g14
(g16
S'<\x00\x00\x00\x00\x00\x00\x00'
tRp2169
sg18
(lp2170
sg20
I69
sg21
(lp2171
sbag2
(g10
g4
NtRp2172
(dp2173
g13
g14
(g16
S'?\x00\x00\x00\x00\x00\x00\x00'
tRp2174
sg18
(lp2175
sg20
I70
sg21
(lp2176
sbag2
(g10
g4
NtRp2177
(dp2178
g13
g14
(g16
S'9\x00\x00\x00\x00\x00\x00\x00'
tRp2179
sg18
(lp2180
sg20
I71
sg21
(lp2181
sbag2
(g10
g4
NtRp2182
(dp2183
g13
g14
(g16
S';\x00\x00\x00\x00\x00\x00\x00'
tRp2184
sg18
(lp2185
sg20
I72
sg21
(lp2186
sbag2
(g10
g4
NtRp2187
(dp2188
g13
g14
(g16
S'=\x00\x00\x00\x00\x00\x00\x00'
tRp2189
sg18
(lp2190
sg20
I73
sg21
(lp2191
sbag2
(g10
g4
NtRp2192
(dp2193
g13
g14
(g16
S'<\x00\x00\x00\x00\x00\x00\x00'
tRp2194
sg18
(lp2195
sg20
I74
sg21
(lp2196
sbag2
(g10
g4
NtRp2197
(dp2198
g13
g14
(g16
S'9\x00\x00\x00\x00\x00\x00\x00'
tRp2199
sg18
(lp2200
sg20
I75
sg21
(lp2201
I115
asbag2
(g10
g4
NtRp2202
(dp2203
g13
g14
(g16
S':\x00\x00\x00\x00\x00\x00\x00'
tRp2204
sg18
(lp2205
sg20
I76
sg21
(lp2206
I115
asbag2
(g10
g4
NtRp2207
(dp2208
g13
g14
(g16
S':\x00\x00\x00\x00\x00\x00\x00'
tRp2209
sg18
(lp2210
sg20
I77
sg21
(lp2211
I127
asbag2
(g10
g4
NtRp2212
(dp2213
g13
g14
(g16
S':\x00\x00\x00\x00\x00\x00\x00'
tRp2214
sg18
(lp2215
sg20
I78
sg21
(lp2216
sbag2
(g10
g4
NtRp2217
(dp2218
g13
g14
(g16
S';\x00\x00\x00\x00\x00\x00\x00'
tRp2219
sg18
(lp2220
sg20
I79
sg21
(lp2221
I113
asbag2
(g10
g4
NtRp2222
(dp2223
g13
g14
(g16
S'9\x00\x00\x00\x00\x00\x00\x00'
tRp2224
sg18
(lp2225
sg20
I80
sg21
(lp2226
I97
aI103
aI112
asbag2
(g10
g4
NtRp2227
(dp2228
g13
g14
(g16
S'<\x00\x00\x00\x00\x00\x00\x00'
tRp2229
sg18
(lp2230
sg20
I81
sg21
(lp2231
I112
aI126
asbag2
(g10
g4
NtRp2232
(dp2233
g13
g14
(g16
S':\x00\x00\x00\x00\x00\x00\x00'
tRp2234
sg18
(lp2235
sg20
I82
sg21
(lp2236
I98
aI106
asbag2
(g10
g4
NtRp2237
(dp2238
g13
g14
(g16
S';\x00\x00\x00\x00\x00\x00\x00'
tRp2239
sg18
(lp2240
sg20
I83
sg21
(lp2241
I107
aI117
asbag2
(g10
g4
NtRp2242
(dp2243
g13
g14
(g16
S'6\x00\x00\x00\x00\x00\x00\x00'
tRp2244
sg18
(lp2245
sg20
I84
sg21
(lp2246
I112
asbag2
(g10
g4
NtRp2247
(dp2248
g13
g14
(g16
S'<\x00\x00\x00\x00\x00\x00\x00'
tRp2249
sg18
(lp2250
sg20
I85
sg21
(lp2251
I118
asbag2
(g10
g4
NtRp2252
(dp2253
g13
g14
(g16
S'<\x00\x00\x00\x00\x00\x00\x00'
tRp2254
sg18
(lp2255
sg20
I86
sg21
(lp2256
sbag2
(g10
g4
NtRp2257
(dp2258
g13
g14
(g16
S'=\x00\x00\x00\x00\x00\x00\x00'
tRp2259
sg18
(lp2260
sg20
I87
sg21
(lp2261
sbag2
(g10
g4
NtRp2262
(dp2263
g13
g14
(g16
S'?\x00\x00\x00\x00\x00\x00\x00'
tRp2264
sg18
(lp2265
sg20
I88
sg21
(lp2266
sbag2
(g10
g4
NtRp2267
(dp2268
g13
g14
(g16
S'>\x00\x00\x00\x00\x00\x00\x00'
tRp2269
sg18
(lp2270
sg20
I89
sg21
(lp2271
sbag2
(g10
g4
NtRp2272
(dp2273
g13
g14
(g16
S'<\x00\x00\x00\x00\x00\x00\x00'
tRp2274
sg18
(lp2275
sg20
I90
sg21
(lp2276
sbag2
(g10
g4
NtRp2277
(dp2278
g13
g14
(g16
S':\x00\x00\x00\x00\x00\x00\x00'
tRp2279
sg18
(lp2280
sg20
I91
sg21
(lp2281
I122
asbag2
(g10
g4
NtRp2282
(dp2283
g13
g14
(g16
S'<\x00\x00\x00\x00\x00\x00\x00'
tRp2284
sg18
(lp2285
sg20
I92
sg21
(lp2286
sbag2
(g10
g4
NtRp2287
(dp2288
g13
g14
(g16
S':\x00\x00\x00\x00\x00\x00\x00'
tRp2289
sg18
(lp2290
sg20
I93
sg21
(lp2291
sbag2
(g10
g4
NtRp2292
(dp2293
g13
g14
(g16
S'9\x00\x00\x00\x00\x00\x00\x00'
tRp2294
sg18
(lp2295
sg20
I94
sg21
(lp2296
I116
asbag2
(g10
g4
NtRp2297
(dp2298
g13
g14
(g16
S'<\x00\x00\x00\x00\x00\x00\x00'
tRp2299
sg18
(lp2300
sg20
I95
sg21
(lp2301
I115
asbag2
(g10
g4
NtRp2302
(dp2303
g13
g14
(g16
S'@\x00\x00\x00\x00\x00\x00\x00'
tRp2304
sg18
(lp2305
sg20
I96
sg21
(lp2306
sbag2
(g10
g4
NtRp2307
(dp2308
g13
g14
(g16
S';\x00\x00\x00\x00\x00\x00\x00'
tRp2309
sg18
(lp2310
sg20
I97
sg21
(lp2311
I111
asbag2
(g10
g4
NtRp2312
(dp2313
g13
g14
(g16
S';\x00\x00\x00\x00\x00\x00\x00'
tRp2314
sg18
(lp2315
sg20
I98
sg21
(lp2316
I104
asbag2
(g10
g4
NtRp2317
(dp2318
g13
g14
(g16
S'<\x00\x00\x00\x00\x00\x00\x00'
tRp2319
sg18
(lp2320
sg20
I99
sg21
(lp2321
I117
asbag2
(g10
g4
NtRp2322
(dp2323
g13
g14
(g16
S'?\x00\x00\x00\x00\x00\x00\x00'
tRp2324
sg18
(lp2325
sg20
I100
sg21
(lp2326
I128
aI131
asbag2
(g10
g4
NtRp2327
(dp2328
g13
g14
(g16
S'@\x00\x00\x00\x00\x00\x00\x00'
tRp2329
sg18
(lp2330
sg20
I101
sg21
(lp2331
I125
aI130
asbag2
(g10
g4
NtRp2332
(dp2333
g13
g14
(g16
S'D\x00\x00\x00\x00\x00\x00\x00'
tRp2334
sg18
(lp2335
sg20
I102
sg21
(lp2336
sbag2
(g10
g4
NtRp2337
(dp2338
g13
g14
(g16
S'@\x00\x00\x00\x00\x00\x00\x00'
tRp2339
sg18
(lp2340
sg20
I103
sg21
(lp2341
I115
aI121
asbag2
(g10
g4
NtRp2342
(dp2343
g13
g14
(g16
S'C\x00\x00\x00\x00\x00\x00\x00'
tRp2344
sg18
(lp2345
sg20
I104
sg21
(lp2346
I121
asbag2
(g10
g4
NtRp2347
(dp2348
g13
g14
(g16
S'?\x00\x00\x00\x00\x00\x00\x00'
tRp2349
sg18
(lp2350
sg20
I105
sg21
(lp2351
I125
aI132
asbag2
(g10
g4
NtRp2352
(dp2353
g13
g14
(g16
S'@\x00\x00\x00\x00\x00\x00\x00'
tRp2354
sg18
(lp2355
sg20
I106
sg21
(lp2356
I123
asbag2
(g10
g4
NtRp2357
(dp2358
g13
g14
(g16
S'B\x00\x00\x00\x00\x00\x00\x00'
tRp2359
sg18
(lp2360
sg20
I107
sg21
(lp2361
I114
aI116
asbag2
(g10
g4
NtRp2362
(dp2363
g13
g14
(g16
S'C\x00\x00\x00\x00\x00\x00\x00'
tRp2364
sg18
(lp2365
sg20
I108
sg21
(lp2366
I120
asbag2
(g10
g4
NtRp2367
(dp2368
g13
g14
(g16
S'>\x00\x00\x00\x00\x00\x00\x00'
tRp2369
sg18
(lp2370
sg20
I109
sg21
(lp2371
sbag2
(g10
g4
NtRp2372
(dp2373
g13
g14
(g16
S'?\x00\x00\x00\x00\x00\x00\x00'
tRp2374
sg18
(lp2375
sg20
I110
sg21
(lp2376
sbag2
(g10
g4
NtRp2377
(dp2378
g13
g14
(g16
S'A\x00\x00\x00\x00\x00\x00\x00'
tRp2379
sg18
(lp2380
sg20
I111
sg21
(lp2381
sbag2
(g10
g4
NtRp2382
(dp2383
g13
g14
(g16
S'@\x00\x00\x00\x00\x00\x00\x00'
tRp2384
sg18
(lp2385
sg20
I112
sg21
(lp2386
sbag2
(g10
g4
NtRp2387
(dp2388
g13
g14
(g16
S'B\x00\x00\x00\x00\x00\x00\x00'
tRp2389
sg18
(lp2390
sg20
I113
sg21
(lp2391
I128
asbag2
(g10
g4
NtRp2392
(dp2393
g13
g14
(g16
S'?\x00\x00\x00\x00\x00\x00\x00'
tRp2394
sg18
(lp2395
sg20
I114
sg21
(lp2396
I98
asbag2
(g10
g4
NtRp2397
(dp2398
g13
g14
(g16
S'?\x00\x00\x00\x00\x00\x00\x00'
tRp2399
sg18
(lp2400
sg20
I115
sg21
(lp2401
I114
asbag2
(g10
g4
NtRp2402
(dp2403
g13
g14
(g16
S'<\x00\x00\x00\x00\x00\x00\x00'
tRp2404
sg18
(lp2405
sg20
I116
sg21
(lp2406
I96
asbag2
(g10
g4
NtRp2407
(dp2408
g13
g14
(g16
S'D\x00\x00\x00\x00\x00\x00\x00'
tRp2409
sg18
(lp2410
sg20
I117
sg21
(lp2411
sbag2
(g10
g4
NtRp2412
(dp2413
g13
g14
(g16
S'C\x00\x00\x00\x00\x00\x00\x00'
tRp2414
sg18
(lp2415
sg20
I118
sg21
(lp2416
sbag2
(g10
g4
NtRp2417
(dp2418
g13
g14
(g16
S'D\x00\x00\x00\x00\x00\x00\x00'
tRp2419
sg18
(lp2420
sg20
I119
sg21
(lp2421
sbag2
(g10
g4
NtRp2422
(dp2423
g13
g14
(g16
S'C\x00\x00\x00\x00\x00\x00\x00'
tRp2424
sg18
(lp2425
sg20
I120
sg21
(lp2426
I102
asbag2
(g10
g4
NtRp2427
(dp2428
g13
g14
(g16
S'>\x00\x00\x00\x00\x00\x00\x00'
tRp2429
sg18
(lp2430
sg20
I121
sg21
(lp2431
I108
aI114
asbag2
(g10
g4
NtRp2432
(dp2433
g13
g14
(g16
S'>\x00\x00\x00\x00\x00\x00\x00'
tRp2434
sg18
(lp2435
sg20
I122
sg21
(lp2436
I105
aI108
asbag2
(g10
g4
NtRp2437
(dp2438
g13
g14
(g16
S'<\x00\x00\x00\x00\x00\x00\x00'
tRp2439
sg18
(lp2440
sg20
I123
sg21
(lp2441
I107
asbag2
(g10
g4
NtRp2442
(dp2443
g13
g14
(g16
S'<\x00\x00\x00\x00\x00\x00\x00'
tRp2444
sg18
(lp2445
sg20
I124
sg21
(lp2446
I106
asbag2
(g10
g4
NtRp2447
(dp2448
g13
g14
(g16
S'?\x00\x00\x00\x00\x00\x00\x00'
tRp2449
sg18
(lp2450
sg20
I125
sg21
(lp2451
I111
asbag2
(g10
g4
NtRp2452
(dp2453
g13
g14
(g16
S'?\x00\x00\x00\x00\x00\x00\x00'
tRp2454
sg18
(lp2455
sg20
I126
sg21
(lp2456
sbag2
(g10
g4
NtRp2457
(dp2458
g13
g14
(g16
S'9\x00\x00\x00\x00\x00\x00\x00'
tRp2459
sg18
(lp2460
sg20
I127
sg21
(lp2461
sbag2
(g10
g4
NtRp2462
(dp2463
g13
g14
(g16
S';\x00\x00\x00\x00\x00\x00\x00'
tRp2464
sg18
(lp2465
sg20
I128
sg21
(lp2466
sbag2
(g10
g4
NtRp2467
(dp2468
g13
g14
(g16
S'?\x00\x00\x00\x00\x00\x00\x00'
tRp2469
sg18
(lp2470
sg20
I129
sg21
(lp2471
sbag2
(g10
g4
NtRp2472
(dp2473
g13
g14
(g16
S'=\x00\x00\x00\x00\x00\x00\x00'
tRp2474
sg18
(lp2475
sg20
I130
sg21
(lp2476
sbag2
(g10
g4
NtRp2477
(dp2478
g13
g14
(g16
S'@\x00\x00\x00\x00\x00\x00\x00'
tRp2479
sg18
(lp2480
sg20
I131
sg21
(lp2481
sbag2
(g10
g4
NtRp2482
(dp2483
g13
g14
(g16
S'<\x00\x00\x00\x00\x00\x00\x00'
tRp2484
sg18
(lp2485
sg20
I132
sg21
(lp2486
sbag2
(g10
g4
NtRp2487
(dp2488
g13
g14
(g16
S'<\x00\x00\x00\x00\x00\x00\x00'
tRp2489
sg18
(lp2490
sg20
I133
sg21
(lp2491
I118
asbag2
(g10
g4
NtRp2492
(dp2493
g13
g14
(g16
S'?\x00\x00\x00\x00\x00\x00\x00'
tRp2494
sg18
(lp2495
sg20
I134
sg21
(lp2496
I118
asbag2
(g10
g4
NtRp2497
(dp2498
g13
g14
(g16
S'B\x00\x00\x00\x00\x00\x00\x00'
tRp2499
sg18
(lp2500
sg20
I135
sg21
(lp2501
sbag2
(g10
g4
NtRp2502
(dp2503
g13
g14
(g16
S'=\x00\x00\x00\x00\x00\x00\x00'
tRp2504
sg18
(lp2505
sg20
I136
sg21
(lp2506
sbag2
(g10
g4
NtRp2507
(dp2508
g13
g14
(g16
S';\x00\x00\x00\x00\x00\x00\x00'
tRp2509
sg18
(lp2510
sg20
I137
sg21
(lp2511
sbag2
(g10
g4
NtRp2512
(dp2513
g13
g14
(g16
S'?\x00\x00\x00\x00\x00\x00\x00'
tRp2514
sg18
(lp2515
sg20
I138
sg21
(lp2516
sbag2
(g10
g4
NtRp2517
(dp2518
g13
g14
(g16
S'@\x00\x00\x00\x00\x00\x00\x00'
tRp2519
sg18
(lp2520
sg20
I139
sg21
(lp2521
sbag2
(g10
g4
NtRp2522
(dp2523
g13
g14
(g16
S'A\x00\x00\x00\x00\x00\x00\x00'
tRp2524
sg18
(lp2525
sg20
I140
sg21
(lp2526
I114
asbag2
(g10
g4
NtRp2527
(dp2528
g13
g14
(g16
S'A\x00\x00\x00\x00\x00\x00\x00'
tRp2529
sg18
(lp2530
sg20
I141
sg21
(lp2531
I121
asbag2
(g10
g4
NtRp2532
(dp2533
g13
g14
(g16
S'A\x00\x00\x00\x00\x00\x00\x00'
tRp2534
sg18
(lp2535
sg20
I142
sg21
(lp2536
sbag2
(g10
g4
NtRp2537
(dp2538
g13
g14
(g16
S'?\x00\x00\x00\x00\x00\x00\x00'
tRp2539
sg18
(lp2540
sg20
I143
sg21
(lp2541
sbag2
(g10
g4
NtRp2542
(dp2543
g13
g14
(g16
S'@\x00\x00\x00\x00\x00\x00\x00'
tRp2544
sg18
(lp2545
sg20
I144
sg21
(lp2546
sbag2
(g10
g4
NtRp2547
(dp2548
g13
g14
(g16
S'A\x00\x00\x00\x00\x00\x00\x00'
tRp2549
sg18
(lp2550
sg20
I145
sg21
(lp2551
sbag2
(g10
g4
NtRp2552
(dp2553
g13
g14
(g16
S'D\x00\x00\x00\x00\x00\x00\x00'
tRp2554
sg18
(lp2555
sg20
I146
sg21
(lp2556
sbag2
(g10
g4
NtRp2557
(dp2558
g13
g14
(g16
S'@\x00\x00\x00\x00\x00\x00\x00'
tRp2559
sg18
(lp2560
sg20
I147
sg21
(lp2561
sbag2
(g10
g4
NtRp2562
(dp2563
g13
g14
(g16
S'>\x00\x00\x00\x00\x00\x00\x00'
tRp2564
sg18
(lp2565
sg20
I148
sg21
(lp2566
sbag2
(g10
g4
NtRp2567
(dp2568
g13
g14
(g16
S'<\x00\x00\x00\x00\x00\x00\x00'
tRp2569
sg18
(lp2570
sg20
I149
sg21
(lp2571
sbag2
(g10
g4
NtRp2572
(dp2573
g13
g14
(g16
S'E\x00\x00\x00\x00\x00\x00\x00'
tRp2574
sg18
(lp2575
sg20
I150
sg21
(lp2576
sbag2
(g10
g4
NtRp2577
(dp2578
g13
g14
(g16
S'F\x00\x00\x00\x00\x00\x00\x00'
tRp2579
sg18
(lp2580
sg20
I151
sg21
(lp2581
sbag2
(g10
g4
NtRp2582
(dp2583
g13
g14
(g16
S'B\x00\x00\x00\x00\x00\x00\x00'
tRp2584
sg18
(lp2585
sg20
I152
sg21
(lp2586
sbag2
(g10
g4
NtRp2587
(dp2588
g13
g14
(g16
S'<\x00\x00\x00\x00\x00\x00\x00'
tRp2589
sg18
(lp2590
sg20
I153
sg21
(lp2591
sbag2
(g10
g4
NtRp2592
(dp2593
g13
g14
(g16
S'>\x00\x00\x00\x00\x00\x00\x00'
tRp2594
sg18
(lp2595
sg20
I154
sg21
(lp2596
I99
asbag2
(g10
g4
NtRp2597
(dp2598
g13
g14
(g16
S'=\x00\x00\x00\x00\x00\x00\x00'
tRp2599
sg18
(lp2600
sg20
I155
sg21
(lp2601
sbag2
(g10
g4
NtRp2602
(dp2603
g13
g14
(g16
S';\x00\x00\x00\x00\x00\x00\x00'
tRp2604
sg18
(lp2605
sg20
I156
sg21
(lp2606
sbag2
(g10
g4
NtRp2607
(dp2608
g13
g14
(g16
S'A\x00\x00\x00\x00\x00\x00\x00'
tRp2609
sg18
(lp2610
sg20
I157
sg21
(lp2611
sbag2
(g10
g4
NtRp2612
(dp2613
g13
g14
(g16
S';\x00\x00\x00\x00\x00\x00\x00'
tRp2614
sg18
(lp2615
sg20
I158
sg21
(lp2616
sbag2
(g10
g4
NtRp2617
(dp2618
g13
g14
(g16
S'?\x00\x00\x00\x00\x00\x00\x00'
tRp2619
sg18
(lp2620
sg20
I159
sg21
(lp2621
sbag2
(g10
g4
NtRp2622
(dp2623
g13
g14
(g16
S'<\x00\x00\x00\x00\x00\x00\x00'
tRp2624
sg18
(lp2625
sg20
I160
sg21
(lp2626
sbag2
(g10
g4
NtRp2627
(dp2628
g13
g14
(g16
S'A\x00\x00\x00\x00\x00\x00\x00'
tRp2629
sg18
(lp2630
sg20
I161
sg21
(lp2631
I112
asbag2
(g10
g4
NtRp2632
(dp2633
g13
g14
(g16
S'<\x00\x00\x00\x00\x00\x00\x00'
tRp2634
sg18
(lp2635
sg20
I162
sg21
(lp2636
sbag2
(g10
g4
NtRp2637
(dp2638
g13
g14
(g16
S'>\x00\x00\x00\x00\x00\x00\x00'
tRp2639
sg18
(lp2640
sg20
I163
sg21
(lp2641
sbag2
(g10
g4
NtRp2642
(dp2643
g13
g14
(g16
S'@\x00\x00\x00\x00\x00\x00\x00'
tRp2644
sg18
(lp2645
sg20
I164
sg21
(lp2646
I110
asbag2
(g10
g4
NtRp2647
(dp2648
g13
g14
(g16
S';\x00\x00\x00\x00\x00\x00\x00'
tRp2649
sg18
(lp2650
sg20
I165
sg21
(lp2651
I94
asbag2
(g10
g4
NtRp2652
(dp2653
g13
g14
(g16
S'8\x00\x00\x00\x00\x00\x00\x00'
tRp2654
sg18
(lp2655
sg20
I166
sg21
(lp2656
I85
asbag2
(g10
g4
NtRp2657
(dp2658
g13
g14
(g16
S'=\x00\x00\x00\x00\x00\x00\x00'
tRp2659
sg18
(lp2660
sg20
I167
sg21
(lp2661
I102
asbag2
(g10
g4
NtRp2662
(dp2663
g13
g14
(g16
S'9\x00\x00\x00\x00\x00\x00\x00'
tRp2664
sg18
(lp2665
sg20
I168
sg21
(lp2666
I90
asbag2
(g10
g4
NtRp2667
(dp2668
g13
g14
(g16
S':\x00\x00\x00\x00\x00\x00\x00'
tRp2669
sg18
(lp2670
sg20
I169
sg21
(lp2671
I88
aI94
asbag2
(g10
g4
NtRp2672
(dp2673
g13
g14
(g16
S'8\x00\x00\x00\x00\x00\x00\x00'
tRp2674
sg18
(lp2675
sg20
I170
sg21
(lp2676
sbag2
(g10
g4
NtRp2677
(dp2678
g13
g14
(g16
S'6\x00\x00\x00\x00\x00\x00\x00'
tRp2679
sg18
(lp2680
sg20
I171
sg21
(lp2681
I103
asbag2
(g10
g4
NtRp2682
(dp2683
g13
g14
(g16
S':\x00\x00\x00\x00\x00\x00\x00'
tRp2684
sg18
(lp2685
sg20
I172
sg21
(lp2686
sbag2
(g10
g4
NtRp2687
(dp2688
g13
g14
(g16
S'<\x00\x00\x00\x00\x00\x00\x00'
tRp2689
sg18
(lp2690
sg20
I173
sg21
(lp2691
sbag2
(g10
g4
NtRp2692
(dp2693
g13
g14
(g16
S'>\x00\x00\x00\x00\x00\x00\x00'
tRp2694
sg18
(lp2695
sg20
I174
sg21
(lp2696
sbag2
(g10
g4
NtRp2697
(dp2698
g13
g14
(g16
S';\x00\x00\x00\x00\x00\x00\x00'
tRp2699
sg18
(lp2700
sg20
I175
sg21
(lp2701
sbag2
(g10
g4
NtRp2702
(dp2703
g13
g14
(g16
S'?\x00\x00\x00\x00\x00\x00\x00'
tRp2704
sg18
(lp2705
sg20
I176
sg21
(lp2706
sbag2
(g10
g4
NtRp2707
(dp2708
g13
g14
(g16
S'=\x00\x00\x00\x00\x00\x00\x00'
tRp2709
sg18
(lp2710
sg20
I177
sg21
(lp2711
sbag2
(g10
g4
NtRp2712
(dp2713
g13
g14
(g16
S'=\x00\x00\x00\x00\x00\x00\x00'
tRp2714
sg18
(lp2715
sg20
I178
sg21
(lp2716
sbag2
(g10
g4
NtRp2717
(dp2718
g13
g14
(g16
S'8\x00\x00\x00\x00\x00\x00\x00'
tRp2719
sg18
(lp2720
sg20
I179
sg21
(lp2721
sbag2
(g10
g4
NtRp2722
(dp2723
g13
g14
(g16
S'<\x00\x00\x00\x00\x00\x00\x00'
tRp2724
sg18
(lp2725
sg20
I180
sg21
(lp2726
sbag2
(g10
g4
NtRp2727
(dp2728
g13
g14
(g16
S';\x00\x00\x00\x00\x00\x00\x00'
tRp2729
sg18
(lp2730
sg20
I181
sg21
(lp2731
sbag2
(g10
g4
NtRp2732
(dp2733
g13
g14
(g16
S':\x00\x00\x00\x00\x00\x00\x00'
tRp2734
sg18
(lp2735
sg20
I182
sg21
(lp2736
sbag2
(g10
g4
NtRp2737
(dp2738
g13
g14
(g16
S':\x00\x00\x00\x00\x00\x00\x00'
tRp2739
sg18
(lp2740
sg20
I183
sg21
(lp2741
sbag2
(g10
g4
NtRp2742
(dp2743
g13
g14
(g16
S';\x00\x00\x00\x00\x00\x00\x00'
tRp2744
sg18
(lp2745
sg20
I184
sg21
(lp2746
sbag2
(g10
g4
NtRp2747
(dp2748
g13
g14
(g16
S'9\x00\x00\x00\x00\x00\x00\x00'
tRp2749
sg18
(lp2750
sg20
I185
sg21
(lp2751
I86
asbag2
(g10
g4
NtRp2752
(dp2753
g13
g14
(g16
S'7\x00\x00\x00\x00\x00\x00\x00'
tRp2754
sg18
(lp2755
sg20
I186
sg21
(lp2756
sbag2
(g10
g4
NtRp2757
(dp2758
g13
g14
(g16
S'9\x00\x00\x00\x00\x00\x00\x00'
tRp2759
sg18
(lp2760
sg20
I187
sg21
(lp2761
sbag2
(g10
g4
NtRp2762
(dp2763
g13
g14
(g16
S'9\x00\x00\x00\x00\x00\x00\x00'
tRp2764
sg18
(lp2765
sg20
I188
sg21
(lp2766
sbag2
(g10
g4
NtRp2767
(dp2768
g13
g14
(g16
S'>\x00\x00\x00\x00\x00\x00\x00'
tRp2769
sg18
(lp2770
sg20
I189
sg21
(lp2771
sbag2
(g10
g4
NtRp2772
(dp2773
g13
g14
(g16
S'<\x00\x00\x00\x00\x00\x00\x00'
tRp2774
sg18
(lp2775
sg20
I190
sg21
(lp2776
sbag2
(g10
g4
NtRp2777
(dp2778
g13
g14
(g16
S'>\x00\x00\x00\x00\x00\x00\x00'
tRp2779
sg18
(lp2780
sg20
I191
sg21
(lp2781
sbag2
(g10
g4
NtRp2782
(dp2783
g13
g14
(g16
S';\x00\x00\x00\x00\x00\x00\x00'
tRp2784
sg18
(lp2785
sg20
I192
sg21
(lp2786
sbag2
(g10
g4
NtRp2787
(dp2788
g13
g14
(g16
S'<\x00\x00\x00\x00\x00\x00\x00'
tRp2789
sg18
(lp2790
sg20
I193
sg21
(lp2791
I100
asbag2
(g10
g4
NtRp2792
(dp2793
g13
g14
(g16
S';\x00\x00\x00\x00\x00\x00\x00'
tRp2794
sg18
(lp2795
sg20
I194
sg21
(lp2796
sbag2
(g10
g4
NtRp2797
(dp2798
g13
g14
(g16
S':\x00\x00\x00\x00\x00\x00\x00'
tRp2799
sg18
(lp2800
sg20
I195
sg21
(lp2801
I87
aI88
asbag2
(g10
g4
NtRp2802
(dp2803
g13
g14
(g16
S';\x00\x00\x00\x00\x00\x00\x00'
tRp2804
sg18
(lp2805
sg20
I196
sg21
(lp2806
I93
aI99
asbag2
(g10
g4
NtRp2807
(dp2808
g13
g14
(g16
S'<\x00\x00\x00\x00\x00\x00\x00'
tRp2809
sg18
(lp2810
sg20
I197
sg21
(lp2811
I107
asbag2
(g10
g4
NtRp2812
(dp2813
g13
g14
(g16
S';\x00\x00\x00\x00\x00\x00\x00'
tRp2814
sg18
(lp2815
sg20
I198
sg21
(lp2816
I98
aI99
asbag2
(g10
g4
NtRp2817
(dp2818
g13
g14
(g16
S'5\x00\x00\x00\x00\x00\x00\x00'
tRp2819
sg18
(lp2820
sg20
I199
sg21
(lp2821
I94
asbag2
(g10
g4
NtRp2822
(dp2823
g13
g14
(g16
S'>\x00\x00\x00\x00\x00\x00\x00'
tRp2824
sg18
(lp2825
sg20
I200
sg21
(lp2826
I101
asbag2
(g10
g4
NtRp2827
(dp2828
g13
g14
(g16
S'A\x00\x00\x00\x00\x00\x00\x00'
tRp2829
sg18
(lp2830
sg20
I201
sg21
(lp2831
I96
asbag2
(g10
g4
NtRp2832
(dp2833
g13
g14
(g16
S';\x00\x00\x00\x00\x00\x00\x00'
tRp2834
sg18
(lp2835
sg20
I202
sg21
(lp2836
sbag2
(g10
g4
NtRp2837
(dp2838
g13
g14
(g16
S'>\x00\x00\x00\x00\x00\x00\x00'
tRp2839
sg18
(lp2840
sg20
I203
sg21
(lp2841
I99
asbag2
(g10
g4
NtRp2842
(dp2843
g13
g14
(g16
S'?\x00\x00\x00\x00\x00\x00\x00'
tRp2844
sg18
(lp2845
sg20
I204
sg21
(lp2846
I110
asbag2
(g10
g4
NtRp2847
(dp2848
g13
g14
(g16
S'A\x00\x00\x00\x00\x00\x00\x00'
tRp2849
sg18
(lp2850
sg20
I205
sg21
(lp2851
sbag2
(g10
g4
NtRp2852
(dp2853
g13
g14
(g16
S'D\x00\x00\x00\x00\x00\x00\x00'
tRp2854
sg18
(lp2855
sg20
I206
sg21
(lp2856
I115
asbag2
(g10
g4
NtRp2857
(dp2858
g13
g14
(g16
S'>\x00\x00\x00\x00\x00\x00\x00'
tRp2859
sg18
(lp2860
sg20
I207
sg21
(lp2861
I99
asbag2
(g10
g4
NtRp2862
(dp2863
g13
g14
(g16
S'@\x00\x00\x00\x00\x00\x00\x00'
tRp2864
sg18
(lp2865
sg20
I208
sg21
(lp2866
sbag2
(g10
g4
NtRp2867
(dp2868
g13
g14
(g16
S'<\x00\x00\x00\x00\x00\x00\x00'
tRp2869
sg18
(lp2870
sg20
I209
sg21
(lp2871
sbag2
(g10
g4
NtRp2872
(dp2873
g13
g14
(g16
S':\x00\x00\x00\x00\x00\x00\x00'
tRp2874
sg18
(lp2875
sg20
I210
sg21
(lp2876
I108
aI114
asbag2
(g10
g4
NtRp2877
(dp2878
g13
g14
(g16
S'>\x00\x00\x00\x00\x00\x00\x00'
tRp2879
sg18
(lp2880
sg20
I211
sg21
(lp2881
I116
asbasg38
I0
sbtp2882
a(S'r'
g2
(g3
g4
NtRp2883
(dp2884
g7
I17
sg8
(lp2885
g2
(g10
g4
NtRp2886
(dp2887
g13
g14
(g16
S'?\x00\x00\x00\x00\x00\x00\x00'
tRp2888
sg18
(lp2889
sg20
I0
sg21
(lp2890
I137
aI139
aI148
asbag2
(g10
g4
NtRp2891
(dp2892
g13
g14
(g16
S'B\x00\x00\x00\x00\x00\x00\x00'
tRp2893
sg18
(lp2894
sg20
I1
sg21
(lp2895
I131
aI132
aI136
aI142
asbag2
(g10
g4
NtRp2896
(dp2897
g13
g14
(g16
S'A\x00\x00\x00\x00\x00\x00\x00'
tRp2898
sg18
(lp2899
sg20
I2
sg21
(lp2900
I134
aI137
asbag2
(g10
g4
NtRp2901
(dp2902
g13
g14
(g16
S'@\x00\x00\x00\x00\x00\x00\x00'
tRp2903
sg18
(lp2904
sg20
I3
sg21
(lp2905
I124
aI131
asbag2
(g10
g4
NtRp2906
(dp2907
g13
g14
(g16
S'@\x00\x00\x00\x00\x00\x00\x00'
tRp2908
sg18
(lp2909
sg20
I4
sg21
(lp2910
I118
aI123
aI128
asbag2
(g10
g4
NtRp2911
(dp2912
g13
g14
(g16
S'@\x00\x00\x00\x00\x00\x00\x00'
tRp2913
sg18
(lp2914
sg20
I5
sg21
(lp2915
I109
aI116
aI119
asbag2
(g10
g4
NtRp2916
(dp2917
g13
g14
(g16
S'B\x00\x00\x00\x00\x00\x00\x00'
tRp2918
sg18
(lp2919
sg20
I6
sg21
(lp2920
I120
aI123
aI125
ag14
(g16
S'q\x00\x00\x00\x00\x00\x00\x00'
tRp2921
asbag2
(g10
g4
NtRp2922
(dp2923
g13
g14
(g16
S'<\x00\x00\x00\x00\x00\x00\x00'
tRp2924
sg18
(lp2925
sg20
I7
sg21
(lp2926
I114
asbag2
(g10
g4
NtRp2927
(dp2928
g13
g14
(g16
S'@\x00\x00\x00\x00\x00\x00\x00'
tRp2929
sg18
(lp2930
sg20
I8
sg21
(lp2931
I121
asbag2
(g10
g4
NtRp2932
(dp2933
g13
g14
(g16
S'A\x00\x00\x00\x00\x00\x00\x00'
tRp2934
sg18
(lp2935
sg20
I9
sg21
(lp2936
I137
ag14
(g16
S'\x81\x00\x00\x00\x00\x00\x00\x00'
tRp2937
asbag2
(g10
g4
NtRp2938
(dp2939
g13
g14
(g16
S'\\\x00\x00\x00\x00\x00\x00\x00'
tRp2940
sg18
(lp2941
sg20
I10
sg21
(lp2942
I123
aI126
asbag2
(g10
g4
NtRp2943
(dp2944
g13
g14
(g16
S'A\x00\x00\x00\x00\x00\x00\x00'
tRp2945
sg18
(lp2946
sg20
I11
sg21
(lp2947
I114
aI115
aI116
aI122
asbag2
(g10
g4
NtRp2948
(dp2949
g13
g14
(g16
S'=\x00\x00\x00\x00\x00\x00\x00'
tRp2950
sg18
(lp2951
sg20
I12
sg21
(lp2952
I119
aI122
aI126
asbag2
(g10
g4
NtRp2953
(dp2954
g13
g14
(g16
S'<\x00\x00\x00\x00\x00\x00\x00'
tRp2955
sg18
(lp2956
sg20
I13
sg21
(lp2957
I120
aI130
ag14
(g16
S'}\x00\x00\x00\x00\x00\x00\x00'
tRp2958
ag14
(g16
S'y\x00\x00\x00\x00\x00\x00\x00'
tRp2959
asbag2
(g10
g4
NtRp2960
(dp2961
g13
g14
(g16
S'>\x00\x00\x00\x00\x00\x00\x00'
tRp2962
sg18
(lp2963
sg20
I14
sg21
(lp2964
I109
aI112
ag14
(g16
S'r\x00\x00\x00\x00\x00\x00\x00'
tRp2965
asbag2
(g10
g4
NtRp2966
(dp2967
g13
g14
(g16
S'U\x00\x00\x00\x00\x00\x00\x00'
tRp2968
sg18
(lp2969
sg20
I15
sg21
(lp2970
I93
aI95
ag14
(g16
S'a\x00\x00\x00\x00\x00\x00\x00'
tRp2971
asbag2
(g10
g4
NtRp2972
(dp2973
g13
g14
(g16
S'S\x00\x00\x00\x00\x00\x00\x00'
tRp2974
sg18
(lp2975
sg20
I16
sg21
(lp2976
g14
(g16
S'a\x00\x00\x00\x00\x00\x00\x00'
tRp2977
asbag2
(g10
g4
NtRp2978
(dp2979
g13
g14
(g16
S'X\x00\x00\x00\x00\x00\x00\x00'
tRp2980
sg18
(lp2981
sg20
I17
sg21
(lp2982
I104
asbasg38
I0
sbtp2983
a(S'w'
g2
(g3
g4
NtRp2984
(dp2985
g7
I39
sg8
(lp2986
g2
(g10
g4
NtRp2987
(dp2988
g13
g14
(g16
S'B\x00\x00\x00\x00\x00\x00\x00'
tRp2989
sg18
(lp2990
sg20
I0
sg21
(lp2991
I146
aI152
asbag2
(g10
g4
NtRp2992
(dp2993
g13
g14
(g16
S'E\x00\x00\x00\x00\x00\x00\x00'
tRp2994
sg18
(lp2995
sg20
I1
sg21
(lp2996
I139
aI140
aI144
asbag2
(g10
g4
NtRp2997
(dp2998
g13
g14
(g16
S'E\x00\x00\x00\x00\x00\x00\x00'
tRp2999
sg18
(lp3000
sg20
I2
sg21
(lp3001
I133
aI136
aI140
asbag2
(g10
g4
NtRp3002
(dp3003
g13
g14
(g16
S'D\x00\x00\x00\x00\x00\x00\x00'
tRp3004
sg18
(lp3005
sg20
I3
sg21
(lp3006
I132
aI134
aI137
asbag2
(g10
g4
NtRp3007
(dp3008
g13
g14
(g16
S'E\x00\x00\x00\x00\x00\x00\x00'
tRp3009
sg18
(lp3010
sg20
I4
sg21
(lp3011
I127
aI130
asbag2
(g10
g4
NtRp3012
(dp3013
g13
g14
(g16
S'F\x00\x00\x00\x00\x00\x00\x00'
tRp3014
sg18
(lp3015
sg20
I5
sg21
(lp3016
I120
aI122
asbag2
(g10
g4
NtRp3017
(dp3018
g13
g14
(g16
S'G\x00\x00\x00\x00\x00\x00\x00'
tRp3019
sg18
(lp3020
sg20
I6
sg21
(lp3021
I127
aI129
aI133
asbag2
(g10
g4
NtRp3022
(dp3023
g13
g14
(g16
S'C\x00\x00\x00\x00\x00\x00\x00'
tRp3024
sg18
(lp3025
sg20
I7
sg21
(lp3026
I115
aI117
asbag2
(g10
g4
NtRp3027
(dp3028
g13
g14
(g16
S'D\x00\x00\x00\x00\x00\x00\x00'
tRp3029
sg18
(lp3030
sg20
I8
sg21
(lp3031
I124
asbag2
(g10
g4
NtRp3032
(dp3033
g13
g14
(g16
S'F\x00\x00\x00\x00\x00\x00\x00'
tRp3034
sg18
(lp3035
sg20
I9
sg21
(lp3036
I138
aI143
asbag2
(g10
g4
NtRp3037
(dp3038
g13
g14
(g16
S'I\x00\x00\x00\x00\x00\x00\x00'
tRp3039
sg18
(lp3040
sg20
I10
sg21
(lp3041
I128
asbag2
(g10
g4
NtRp3042
(dp3043
g13
g14
(g16
S'F\x00\x00\x00\x00\x00\x00\x00'
tRp3044
sg18
(lp3045
sg20
I11
sg21
(lp3046
I123
asbag2
(g10
g4
NtRp3047
(dp3048
g13
g14
(g16
S'C\x00\x00\x00\x00\x00\x00\x00'
tRp3049
sg18
(lp3050
sg20
I12
sg21
(lp3051
I125
asbag2
(g10
g4
NtRp3052
(dp3053
g13
g14
(g16
S'C\x00\x00\x00\x00\x00\x00\x00'
tRp3054
sg18
(lp3055
sg20
I13
sg21
(lp3056
I129
asbag2
(g10
g4
NtRp3057
(dp3058
g13
g14
(g16
S'D\x00\x00\x00\x00\x00\x00\x00'
tRp3059
sg18
(lp3060
sg20
I14
sg21
(lp3061
I118
asbag2
(g10
g4
NtRp3062
(dp3063
g13
g14
(g16
S'A\x00\x00\x00\x00\x00\x00\x00'
tRp3064
sg18
(lp3065
sg20
I15
sg21
(lp3066
I101
aI112
aI113
asbag2
(g10
g4
NtRp3067
(dp3068
g13
g14
(g16
S'A\x00\x00\x00\x00\x00\x00\x00'
tRp3069
sg18
(lp3070
sg20
I16
sg21
(lp3071
I98
aI107
asbag2
(g10
g4
NtRp3072
(dp3073
g13
g14
(g16
S'G\x00\x00\x00\x00\x00\x00\x00'
tRp3074
sg18
(lp3075
sg20
I17
sg21
(lp3076
I106
asbag2
(g10
g4
NtRp3077
(dp3078
g13
g14
(g16
S'I\x00\x00\x00\x00\x00\x00\x00'
tRp3079
sg18
(lp3080
sg20
I18
sg21
(lp3081
I111
asbag2
(g10
g4
NtRp3082
(dp3083
g13
g14
(g16
S'E\x00\x00\x00\x00\x00\x00\x00'
tRp3084
sg18
(lp3085
sg20
I19
sg21
(lp3086
I106
asbag2
(g10
g4
NtRp3087
(dp3088
g13
g14
(g16
S'E\x00\x00\x00\x00\x00\x00\x00'
tRp3089
sg18
(lp3090
sg20
I20
sg21
(lp3091
I121
asbag2
(g10
g4
NtRp3092
(dp3093
g13
g14
(g16
S'D\x00\x00\x00\x00\x00\x00\x00'
tRp3094
sg18
(lp3095
sg20
I21
sg21
(lp3096
I127
asbag2
(g10
g4
NtRp3097
(dp3098
g13
g14
(g16
S'W\x00\x00\x00\x00\x00\x00\x00'
tRp3099
sg18
(lp3100
sg20
I22
sg21
(lp3101
I132
asbag2
(g10
g4
NtRp3102
(dp3103
g13
g14
(g16
S'X\x00\x00\x00\x00\x00\x00\x00'
tRp3104
sg18
(lp3105
sg20
I23
sg21
(lp3106
I117
aI125
ag14
(g16
S'y\x00\x00\x00\x00\x00\x00\x00'
tRp3107
asbag2
(g10
g4
NtRp3108
(dp3109
g13
g14
(g16
S'H\x00\x00\x00\x00\x00\x00\x00'
tRp3110
sg18
(lp3111
sg20
I24
sg21
(lp3112
I120
aI121
aI127
asbag2
(g10
g4
NtRp3113
(dp3114
g13
g14
(g16
S'E\x00\x00\x00\x00\x00\x00\x00'
tRp3115
sg18
(lp3116
sg20
I25
sg21
(lp3117
sbag2
(g10
g4
NtRp3118
(dp3119
g13
g14
(g16
S'I\x00\x00\x00\x00\x00\x00\x00'
tRp3120
sg18
(lp3121
sg20
I26
sg21
(lp3122
I117
asbag2
(g10
g4
NtRp3123
(dp3124
g13
g14
(g16
S'K\x00\x00\x00\x00\x00\x00\x00'
tRp3125
sg18
(lp3126
sg20
I27
sg21
(lp3127
sbag2
(g10
g4
NtRp3128
(dp3129
g13
g14
(g16
S'I\x00\x00\x00\x00\x00\x00\x00'
tRp3130
sg18
(lp3131
sg20
I28
sg21
(lp3132
sbag2
(g10
g4
NtRp3133
(dp3134
g13
g14
(g16
S'H\x00\x00\x00\x00\x00\x00\x00'
tRp3135
sg18
(lp3136
sg20
I29
sg21
(lp3137
sbag2
(g10
g4
NtRp3138
(dp3139
g13
g14
(g16
S'F\x00\x00\x00\x00\x00\x00\x00'
tRp3140
sg18
(lp3141
sg20
I30
sg21
(lp3142
I132
asbag2
(g10
g4
NtRp3143
(dp3144
g13
g14
(g16
S'E\x00\x00\x00\x00\x00\x00\x00'
tRp3145
sg18
(lp3146
sg20
I31
sg21
(lp3147
I129
aI131
asbag2
(g10
g4
NtRp3148
(dp3149
g13
g14
(g16
S'F\x00\x00\x00\x00\x00\x00\x00'
tRp3150
sg18
(lp3151
sg20
I32
sg21
(lp3152
I132
aI135
asbag2
(g10
g4
NtRp3153
(dp3154
g13
g14
(g16
S'F\x00\x00\x00\x00\x00\x00\x00'
tRp3155
sg18
(lp3156
sg20
I33
sg21
(lp3157
I132
asbag2
(g10
g4
NtRp3158
(dp3159
g13
g14
(g16
S'I\x00\x00\x00\x00\x00\x00\x00'
tRp3160
sg18
(lp3161
sg20
I34
sg21
(lp3162
sbag2
(g10
g4
NtRp3163
(dp3164
g13
g14
(g16
S'G\x00\x00\x00\x00\x00\x00\x00'
tRp3165
sg18
(lp3166
sg20
I35
sg21
(lp3167
I119
asbag2
(g10
g4
NtRp3168
(dp3169
g13
g14
(g16
S'B\x00\x00\x00\x00\x00\x00\x00'
tRp3170
sg18
(lp3171
sg20
I36
sg21
(lp3172
I120
asbag2
(g10
g4
NtRp3173
(dp3174
g13
g14
(g16
S'G\x00\x00\x00\x00\x00\x00\x00'
tRp3175
sg18
(lp3176
sg20
I37
sg21
(lp3177
sbag2
(g10
g4
NtRp3178
(dp3179
g13
g14
(g16
S'E\x00\x00\x00\x00\x00\x00\x00'
tRp3180
sg18
(lp3181
sg20
I38
sg21
(lp3182
I140
aI148
asbag2
(g10
g4
NtRp3183
(dp3184
g13
g14
(g16
S'W\x00\x00\x00\x00\x00\x00\x00'
tRp3185
sg18
(lp3186
sg20
I39
sg21
(lp3187
sbasg38
I0
sbtp3188
a(S'q'
g2
(g3
g4
NtRp3189
(dp3190
g7
I18
sg8
(lp3191
g2
(g10
g4
NtRp3192
(dp3193
g13
g14
(g16
S'J\x00\x00\x00\x00\x00\x00\x00'
tRp3194
sg18
(lp3195
sg20
I0
sg21
(lp3196
I159
asbag2
(g10
g4
NtRp3197
(dp3198
g13
g14
(g16
S'M\x00\x00\x00\x00\x00\x00\x00'
tRp3199
sg18
(lp3200
sg20
I1
sg21
(lp3201
I155
aI162
asbag2
(g10
g4
NtRp3202
(dp3203
g13
g14
(g16
S'M\x00\x00\x00\x00\x00\x00\x00'
tRp3204
sg18
(lp3205
sg20
I2
sg21
(lp3206
I148
asbag2
(g10
g4
NtRp3207
(dp3208
g13
g14
(g16
S'L\x00\x00\x00\x00\x00\x00\x00'
tRp3209
sg18
(lp3210
sg20
I3
sg21
(lp3211
I144
aI146
asbag2
(g10
g4
NtRp3212
(dp3213
g13
g14
(g16
S'M\x00\x00\x00\x00\x00\x00\x00'
tRp3214
sg18
(lp3215
sg20
I4
sg21
(lp3216
I137
aI139
asbag2
(g10
g4
NtRp3217
(dp3218
g13
g14
(g16
S'N\x00\x00\x00\x00\x00\x00\x00'
tRp3219
sg18
(lp3220
sg20
I5
sg21
(lp3221
I126
aI128
asbag2
(g10
g4
NtRp3222
(dp3223
g13
g14
(g16
S'O\x00\x00\x00\x00\x00\x00\x00'
tRp3224
sg18
(lp3225
sg20
I6
sg21
(lp3226
I140
aI142
aI144
asbag2
(g10
g4
NtRp3227
(dp3228
g13
g14
(g16
S'K\x00\x00\x00\x00\x00\x00\x00'
tRp3229
sg18
(lp3230
sg20
I7
sg21
(lp3231
I124
aI126
aI127
asbag2
(g10
g4
NtRp3232
(dp3233
g13
g14
(g16
S'L\x00\x00\x00\x00\x00\x00\x00'
tRp3234
sg18
(lp3235
sg20
I8
sg21
(lp3236
I129
aI132
asbag2
(g10
g4
NtRp3237
(dp3238
g13
g14
(g16
S'N\x00\x00\x00\x00\x00\x00\x00'
tRp3239
sg18
(lp3240
sg20
I9
sg21
(lp3241
sbag2
(g10
g4
NtRp3242
(dp3243
g13
g14
(g16
S'Q\x00\x00\x00\x00\x00\x00\x00'
tRp3244
sg18
(lp3245
sg20
I10
sg21
(lp3246
I138
aI142
asbag2
(g10
g4
NtRp3247
(dp3248
g13
g14
(g16
S'N\x00\x00\x00\x00\x00\x00\x00'
tRp3249
sg18
(lp3250
sg20
I11
sg21
(lp3251
I134
aI138
asbag2
(g10
g4
NtRp3252
(dp3253
g13
g14
(g16
S'L\x00\x00\x00\x00\x00\x00\x00'
tRp3254
sg18
(lp3255
sg20
I12
sg21
(lp3256
I142
ag14
(g16
S'\x8a\x00\x00\x00\x00\x00\x00\x00'
tRp3257
asbag2
(g10
g4
NtRp3258
(dp3259
g13
g14
(g16
S'K\x00\x00\x00\x00\x00\x00\x00'
tRp3260
sg18
(lp3261
sg20
I13
sg21
(lp3262
g14
(g16
S'\x91\x00\x00\x00\x00\x00\x00\x00'
tRp3263
asbag2
(g10
g4
NtRp3264
(dp3265
g13
g14
(g16
S'M\x00\x00\x00\x00\x00\x00\x00'
tRp3266
sg18
(lp3267
sg20
I14
sg21
(lp3268
I134
asbag2
(g10
g4
NtRp3269
(dp3270
g13
g14
(g16
S'V\x00\x00\x00\x00\x00\x00\x00'
tRp3271
sg18
(lp3272
sg20
I15
sg21
(lp3273
sbag2
(g10
g4
NtRp3274
(dp3275
g13
g14
(g16
S'V\x00\x00\x00\x00\x00\x00\x00'
tRp3276
sg18
(lp3277
sg20
I16
sg21
(lp3278
g14
(g16
S'r\x00\x00\x00\x00\x00\x00\x00'
tRp3279
asbag2
(g10
g4
NtRp3280
(dp3281
g13
g14
(g16
S'Z\x00\x00\x00\x00\x00\x00\x00'
tRp3282
sg18
(lp3283
sg20
I17
sg21
(lp3284
g14
(g16
S'w\x00\x00\x00\x00\x00\x00\x00'
tRp3285
asbag2
(g10
g4
NtRp3286
(dp3287
g13
g14
(g16
S'^\x00\x00\x00\x00\x00\x00\x00'
tRp3288
sg18
(lp3289
sg20
I18
sg21
(lp3290
I130
asbasg38
I0
sbtp3291
a(S'q'
g2
(g3
g4
NtRp3292
(dp3293
g7
I21
sg8
(lp3294
g2
(g10
g4
NtRp3295
(dp3296
g13
g14
(g16
S'L\x00\x00\x00\x00\x00\x00\x00'
tRp3297
sg18
(lp3298
sg20
I0
sg21
(lp3299
sbag2
(g10
g4
NtRp3300
(dp3301
g13
g14
(g16
S'O\x00\x00\x00\x00\x00\x00\x00'
tRp3302
sg18
(lp3303
sg20
I1
sg21
(lp3304
I154
asbag2
(g10
g4
NtRp3305
(dp3306
g13
g14
(g16
S'O\x00\x00\x00\x00\x00\x00\x00'
tRp3307
sg18
(lp3308
sg20
I2
sg21
(lp3309
I149
asbag2
(g10
g4
NtRp3310
(dp3311
g13
g14
(g16
S'O\x00\x00\x00\x00\x00\x00\x00'
tRp3312
sg18
(lp3313
sg20
I3
sg21
(lp3314
I143
asbag2
(g10
g4
NtRp3315
(dp3316
g13
g14
(g16
S'O\x00\x00\x00\x00\x00\x00\x00'
tRp3317
sg18
(lp3318
sg20
I4
sg21
(lp3319
I136
asbag2
(g10
g4
NtRp3320
(dp3321
g13
g14
(g16
S'P\x00\x00\x00\x00\x00\x00\x00'
tRp3322
sg18
(lp3323
sg20
I5
sg21
(lp3324
I127
asbag2
(g10
g4
NtRp3325
(dp3326
g13
g14
(g16
S'Q\x00\x00\x00\x00\x00\x00\x00'
tRp3327
sg18
(lp3328
sg20
I6
sg21
(lp3329
I141
asbag2
(g10
g4
NtRp3330
(dp3331
g13
g14
(g16
S'N\x00\x00\x00\x00\x00\x00\x00'
tRp3332
sg18
(lp3333
sg20
I7
sg21
(lp3334
I125
asbag2
(g10
g4
NtRp3335
(dp3336
g13
g14
(g16
S'O\x00\x00\x00\x00\x00\x00\x00'
tRp3337
sg18
(lp3338
sg20
I8
sg21
(lp3339
I131
aI134
asbag2
(g10
g4
NtRp3340
(dp3341
g13
g14
(g16
S'Q\x00\x00\x00\x00\x00\x00\x00'
tRp3342
sg18
(lp3343
sg20
I9
sg21
(lp3344
I151
asbag2
(g10
g4
NtRp3345
(dp3346
g13
g14
(g16
S'T\x00\x00\x00\x00\x00\x00\x00'
tRp3347
sg18
(lp3348
sg20
I10
sg21
(lp3349
I140
asbag2
(g10
g4
NtRp3350
(dp3351
g13
g14
(g16
S'Q\x00\x00\x00\x00\x00\x00\x00'
tRp3352
sg18
(lp3353
sg20
I11
sg21
(lp3354
I136
asbag2
(g10
g4
NtRp3355
(dp3356
g13
g14
(g16
S'N\x00\x00\x00\x00\x00\x00\x00'
tRp3357
sg18
(lp3358
sg20
I12
sg21
(lp3359
I140
ag14
(g16
S'\x91\x00\x00\x00\x00\x00\x00\x00'
tRp3360
asbag2
(g10
g4
NtRp3361
(dp3362
g13
g14
(g16
S'N\x00\x00\x00\x00\x00\x00\x00'
tRp3363
sg18
(lp3364
sg20
I13
sg21
(lp3365
I148
aI149
asbag2
(g10
g4
NtRp3366
(dp3367
g13
g14
(g16
S'P\x00\x00\x00\x00\x00\x00\x00'
tRp3368
sg18
(lp3369
sg20
I14
sg21
(lp3370
I133
ag14
(g16
S'\x88\x00\x00\x00\x00\x00\x00\x00'
tRp3371
asbag2
(g10
g4
NtRp3372
(dp3373
g13
g14
(g16
S'K\x00\x00\x00\x00\x00\x00\x00'
tRp3374
sg18
(lp3375
sg20
I15
sg21
(lp3376
I117
ag14
(g16
S'x\x00\x00\x00\x00\x00\x00\x00'
tRp3377
asbag2
(g10
g4
NtRp3378
(dp3379
g13
g14
(g16
S'K\x00\x00\x00\x00\x00\x00\x00'
tRp3380
sg18
(lp3381
sg20
I16
sg21
(lp3382
I113
asbag2
(g10
g4
NtRp3383
(dp3384
g13
g14
(g16
S'R\x00\x00\x00\x00\x00\x00\x00'
tRp3385
sg18
(lp3386
sg20
I17
sg21
(lp3387
I118
asbag2
(g10
g4
NtRp3388
(dp3389
g13
g14
(g16
S'S\x00\x00\x00\x00\x00\x00\x00'
tRp3390
sg18
(lp3391
sg20
I18
sg21
(lp3392
I132
asbag2
(g10
g4
NtRp3393
(dp3394
g13
g14
(g16
S'O\x00\x00\x00\x00\x00\x00\x00'
tRp3395
sg18
(lp3396
sg20
I19
sg21
(lp3397
I121
asbag2
(g10
g4
NtRp3398
(dp3399
g13
g14
(g16
S'R\x00\x00\x00\x00\x00\x00\x00'
tRp3400
sg18
(lp3401
sg20
I20
sg21
(lp3402
I139
asbag2
(g10
g4
NtRp3403
(dp3404
g13
g14
(g16
S'O\x00\x00\x00\x00\x00\x00\x00'
tRp3405
sg18
(lp3406
sg20
I21
sg21
(lp3407
I145
asbasg38
I0
sbtp3408
a(S'q'
g2
(g3
g4
NtRp3409
(dp3410
g7
I49
sg8
(lp3411
g2
(g10
g4
NtRp3412
(dp3413
g13
g14
(g16
S'O\x00\x00\x00\x00\x00\x00\x00'
tRp3414
sg18
(lp3415
sg20
I0
sg21
(lp3416
sbag2
(g10
g4
NtRp3417
(dp3418
g13
g14
(g16
S'R\x00\x00\x00\x00\x00\x00\x00'
tRp3419
sg18
(lp3420
sg20
I1
sg21
(lp3421
sbag2
(g10
g4
NtRp3422
(dp3423
g13
g14
(g16
S'Q\x00\x00\x00\x00\x00\x00\x00'
tRp3424
sg18
(lp3425
sg20
I2
sg21
(lp3426
sbag2
(g10
g4
NtRp3427
(dp3428
g13
g14
(g16
S'Q\x00\x00\x00\x00\x00\x00\x00'
tRp3429
sg18
(lp3430
sg20
I3
sg21
(lp3431
sbag2
(g10
g4
NtRp3432
(dp3433
g13
g14
(g16
S'R\x00\x00\x00\x00\x00\x00\x00'
tRp3434
sg18
(lp3435
sg20
I4
sg21
(lp3436
sbag2
(g10
g4
NtRp3437
(dp3438
g13
g14
(g16
S'V\x00\x00\x00\x00\x00\x00\x00'
tRp3439
sg18
(lp3440
sg20
I5
sg21
(lp3441
sbag2
(g10
g4
NtRp3442
(dp3443
g13
g14
(g16
S'T\x00\x00\x00\x00\x00\x00\x00'
tRp3444
sg18
(lp3445
sg20
I6
sg21
(lp3446
sbag2
(g10
g4
NtRp3447
(dp3448
g13
g14
(g16
S'Q\x00\x00\x00\x00\x00\x00\x00'
tRp3449
sg18
(lp3450
sg20
I7
sg21
(lp3451
sbag2
(g10
g4
NtRp3452
(dp3453
g13
g14
(g16
S'R\x00\x00\x00\x00\x00\x00\x00'
tRp3454
sg18
(lp3455
sg20
I8
sg21
(lp3456
I137
asbag2
(g10
g4
NtRp3457
(dp3458
g13
g14
(g16
S'S\x00\x00\x00\x00\x00\x00\x00'
tRp3459
sg18
(lp3460
sg20
I9
sg21
(lp3461
sbag2
(g10
g4
NtRp3462
(dp3463
g13
g14
(g16
S']\x00\x00\x00\x00\x00\x00\x00'
tRp3464
sg18
(lp3465
sg20
I10
sg21
(lp3466
sbag2
(g10
g4
NtRp3467
(dp3468
g13
g14
(g16
S'Y\x00\x00\x00\x00\x00\x00\x00'
tRp3469
sg18
(lp3470
sg20
I11
sg21
(lp3471
sbag2
(g10
g4
NtRp3472
(dp3473
g13
g14
(g16
S'O\x00\x00\x00\x00\x00\x00\x00'
tRp3474
sg18
(lp3475
sg20
I12
sg21
(lp3476
I144
asbag2
(g10
g4
NtRp3477
(dp3478
g13
g14
(g16
S'\x03\x00\x00\x00\x00\x00\x00\x00'
tRp3479
sg18
(lp3480
sg20
I13
sg21
(lp3481
sbag2
(g10
g4
NtRp3482
(dp3483
g13
g14
(g16
S'Q\x00\x00\x00\x00\x00\x00\x00'
tRp3484
sg18
(lp3485
sg20
I14
sg21
(lp3486
sbag2
(g10
g4
NtRp3487
(dp3488
g13
g14
(g16
S'M\x00\x00\x00\x00\x00\x00\x00'
tRp3489
sg18
(lp3490
sg20
I15
sg21
(lp3491
sbag2
(g10
g4
NtRp3492
(dp3493
g13
g14
(g16
S'W\x00\x00\x00\x00\x00\x00\x00'
tRp3494
sg18
(lp3495
sg20
I16
sg21
(lp3496
sbag2
(g10
g4
NtRp3497
(dp3498
g13
g14
(g16
S'[\x00\x00\x00\x00\x00\x00\x00'
tRp3499
sg18
(lp3500
sg20
I17
sg21
(lp3501
sbag2
(g10
g4
NtRp3502
(dp3503
g13
g14
(g16
S'T\x00\x00\x00\x00\x00\x00\x00'
tRp3504
sg18
(lp3505
sg20
I18
sg21
(lp3506
g14
(g16
S'\x88\x00\x00\x00\x00\x00\x00\x00'
tRp3507
asbag2
(g10
g4
NtRp3508
(dp3509
g13
g14
(g16
S'R\x00\x00\x00\x00\x00\x00\x00'
tRp3510
sg18
(lp3511
sg20
I19
sg21
(lp3512
g14
(g16
S'|\x00\x00\x00\x00\x00\x00\x00'
tRp3513
asbag2
(g10
g4
NtRp3514
(dp3515
g13
g14
(g16
S'S\x00\x00\x00\x00\x00\x00\x00'
tRp3516
sg18
(lp3517
sg20
I20
sg21
(lp3518
g14
(g16
S'\x8d\x00\x00\x00\x00\x00\x00\x00'
tRp3519
asbag2
(g10
g4
NtRp3520
(dp3521
g13
g14
(g16
S'[\x00\x00\x00\x00\x00\x00\x00'
tRp3522
sg18
(lp3523
sg20
I21
sg21
(lp3524
I149
asbag2
(g10
g4
NtRp3525
(dp3526
g13
g14
(g16
S'O\x00\x00\x00\x00\x00\x00\x00'
tRp3527
sg18
(lp3528
sg20
I22
sg21
(lp3529
I150
aI153
aI155
aI157
asbag2
(g10
g4
NtRp3530
(dp3531
g13
g14
(g16
S'R\x00\x00\x00\x00\x00\x00\x00'
tRp3532
sg18
(lp3533
sg20
I23
sg21
(lp3534
I135
ag14
(g16
S'\x88\x00\x00\x00\x00\x00\x00\x00'
tRp3535
asbag2
(g10
g4
NtRp3536
(dp3537
g13
g14
(g16
S'T\x00\x00\x00\x00\x00\x00\x00'
tRp3538
sg18
(lp3539
sg20
I24
sg21
(lp3540
I140
ag14
(g16
S'\x8d\x00\x00\x00\x00\x00\x00\x00'
tRp3541
asbag2
(g10
g4
NtRp3542
(dp3543
g13
g14
(g16
S'V\x00\x00\x00\x00\x00\x00\x00'
tRp3544
sg18
(lp3545
sg20
I25
sg21
(lp3546
g14
(g16
S'\x83\x00\x00\x00\x00\x00\x00\x00'
tRp3547
asbag2
(g10
g4
NtRp3548
(dp3549
g13
g14
(g16
S'W\x00\x00\x00\x00\x00\x00\x00'
tRp3550
sg18
(lp3551
sg20
I26
sg21
(lp3552
I129
ag14
(g16
S'\x83\x00\x00\x00\x00\x00\x00\x00'
tRp3553
asbag2
(g10
g4
NtRp3554
(dp3555
g13
g14
(g16
S'_\x00\x00\x00\x00\x00\x00\x00'
tRp3556
sg18
(lp3557
sg20
I27
sg21
(lp3558
g14
(g16
S'\x8c\x00\x00\x00\x00\x00\x00\x00'
tRp3559
asbag2
(g10
g4
NtRp3560
(dp3561
g13
g14
(g16
S'S\x00\x00\x00\x00\x00\x00\x00'
tRp3562
sg18
(lp3563
sg20
I28
sg21
(lp3564
I145
aI148
ag14
(g16
S'\x93\x00\x00\x00\x00\x00\x00\x00'
tRp3565
asbag2
(g10
g4
NtRp3566
(dp3567
g13
g14
(g16
S'R\x00\x00\x00\x00\x00\x00\x00'
tRp3568
sg18
(lp3569
sg20
I29
sg21
(lp3570
I152
ag14
(g16
S'\x99\x00\x00\x00\x00\x00\x00\x00'
tRp3571
asbag2
(g10
g4
NtRp3572
(dp3573
g13
g14
(g16
S'N\x00\x00\x00\x00\x00\x00\x00'
tRp3574
sg18
(lp3575
sg20
I30
sg21
(lp3576
g14
(g16
S'\x91\x00\x00\x00\x00\x00\x00\x00'
tRp3577
ag14
(g16
S'\x93\x00\x00\x00\x00\x00\x00\x00'
tRp3578
asbag2
(g10
g4
NtRp3579
(dp3580
g13
g14
(g16
S'N\x00\x00\x00\x00\x00\x00\x00'
tRp3581
sg18
(lp3582
sg20
I31
sg21
(lp3583
g14
(g16
S'\x95\x00\x00\x00\x00\x00\x00\x00'
tRp3584
ag14
(g16
S'\x97\x00\x00\x00\x00\x00\x00\x00'
tRp3585
asbag2
(g10
g4
NtRp3586
(dp3587
g13
g14
(g16
S'N\x00\x00\x00\x00\x00\x00\x00'
tRp3588
sg18
(lp3589
sg20
I32
sg21
(lp3590
I153
ag14
(g16
S'\x98\x00\x00\x00\x00\x00\x00\x00'
tRp3591
asbag2
(g10
g4
NtRp3592
(dp3593
g13
g14
(g16
S'O\x00\x00\x00\x00\x00\x00\x00'
tRp3594
sg18
(lp3595
sg20
I33
sg21
(lp3596
I153
ag14
(g16
S'\x98\x00\x00\x00\x00\x00\x00\x00'
tRp3597
asbag2
(g10
g4
NtRp3598
(dp3599
g13
g14
(g16
S'U\x00\x00\x00\x00\x00\x00\x00'
tRp3600
sg18
(lp3601
sg20
I34
sg21
(lp3602
g14
(g16
S'\x96\x00\x00\x00\x00\x00\x00\x00'
tRp3603
asbag2
(g10
g4
NtRp3604
(dp3605
g13
g14
(g16
S'Q\x00\x00\x00\x00\x00\x00\x00'
tRp3606
sg18
(lp3607
sg20
I35
sg21
(lp3608
g14
(g16
S'\x89\x00\x00\x00\x00\x00\x00\x00'
tRp3609
asbag2
(g10
g4
NtRp3610
(dp3611
g13
g14
(g16
S'M\x00\x00\x00\x00\x00\x00\x00'
tRp3612
sg18
(lp3613
sg20
I36
sg21
(lp3614
I142
ag14
(g16
S'\x8c\x00\x00\x00\x00\x00\x00\x00'
tRp3615
asbag2
(g10
g4
NtRp3616
(dp3617
g13
g14
(g16
S'P\x00\x00\x00\x00\x00\x00\x00'
tRp3618
sg18
(lp3619
sg20
I37
sg21
(lp3620
g14
(g16
S'\x8e\x00\x00\x00\x00\x00\x00\x00'
tRp3621
asbag2
(g10
g4
NtRp3622
(dp3623
g13
g14
(g16
S'N\x00\x00\x00\x00\x00\x00\x00'
tRp3624
sg18
(lp3625
sg20
I38
sg21
(lp3626
I161
ag14
(g16
S'\xa5\x00\x00\x00\x00\x00\x00\x00'
tRp3627
asbag2
(g10
g4
NtRp3628
(dp3629
g13
g14
(g16
S'O\x00\x00\x00\x00\x00\x00\x00'
tRp3630
sg18
(lp3631
sg20
I39
sg21
(lp3632
I140
ag14
(g16
S'\x8f\x00\x00\x00\x00\x00\x00\x00'
tRp3633
asbag2
(g10
g4
NtRp3634
(dp3635
g13
g14
(g16
S'J\x00\x00\x00\x00\x00\x00\x00'
tRp3636
sg18
(lp3637
sg20
I40
sg21
(lp3638
I135
aI137
asbag2
(g10
g4
NtRp3639
(dp3640
g13
g14
(g16
S'Q\x00\x00\x00\x00\x00\x00\x00'
tRp3641
sg18
(lp3642
sg20
I41
sg21
(lp3643
I134
aI136
asbag2
(g10
g4
NtRp3644
(dp3645
g13
g14
(g16
S'_\x00\x00\x00\x00\x00\x00\x00'
tRp3646
sg18
(lp3647
sg20
I42
sg21
(lp3648
g14
(g16
S'\x8c\x00\x00\x00\x00\x00\x00\x00'
tRp3649
asbag2
(g10
g4
NtRp3650
(dp3651
g13
g14
(g16
S'P\x00\x00\x00\x00\x00\x00\x00'
tRp3652
sg18
(lp3653
sg20
I43
sg21
(lp3654
I131
aI135
aI138
asbag2
(g10
g4
NtRp3655
(dp3656
g13
g14
(g16
S'S\x00\x00\x00\x00\x00\x00\x00'
tRp3657
sg18
(lp3658
sg20
I44
sg21
(lp3659
I146
ag14
(g16
S'\x95\x00\x00\x00\x00\x00\x00\x00'
tRp3660
asbag2
(g10
g4
NtRp3661
(dp3662
g13
g14
(g16
S'K\x00\x00\x00\x00\x00\x00\x00'
tRp3663
sg18
(lp3664
sg20
I45
sg21
(lp3665
I136
aI137
aI139
asbag2
(g10
g4
NtRp3666
(dp3667
g13
g14
(g16
S'U\x00\x00\x00\x00\x00\x00\x00'
tRp3668
sg18
(lp3669
sg20
I46
sg21
(lp3670
I144
aI147
asbag2
(g10
g4
NtRp3671
(dp3672
g13
g14
(g16
S'K\x00\x00\x00\x00\x00\x00\x00'
tRp3673
sg18
(lp3674
sg20
I47
sg21
(lp3675
I139
aI140
aI141
aI144
asbag2
(g10
g4
NtRp3676
(dp3677
g13
g14
(g16
S'M\x00\x00\x00\x00\x00\x00\x00'
tRp3678
sg18
(lp3679
sg20
I48
sg21
(lp3680
I148
aI149
aI150
aI151
aI154
asbag2
(g10
g4
NtRp3681
(dp3682
g13
g14
(g16
S'\\\x00\x00\x00\x00\x00\x00\x00'
tRp3683
sg18
(lp3684
sg20
I49
sg21
(lp3685
I155
asbasg38
I0
sbtp3686
a(S'r'
g2
(g3
g4
NtRp3687
(dp3688
g7
I9
sg8
(lp3689
g2
(g10
g4
NtRp3690
(dp3691
g13
g14
(g16
S'P\x00\x00\x00\x00\x00\x00\x00'
tRp3692
sg18
(lp3693
sg20
I0
sg21
(lp3694
I163
asbag2
(g10
g4
NtRp3695
(dp3696
g13
g14
(g16
S'S\x00\x00\x00\x00\x00\x00\x00'
tRp3697
sg18
(lp3698
sg20
I1
sg21
(lp3699
sbag2
(g10
g4
NtRp3700
(dp3701
g13
g14
(g16
S'S\x00\x00\x00\x00\x00\x00\x00'
tRp3702
sg18
(lp3703
sg20
I2
sg21
(lp3704
I155
asbag2
(g10
g4
NtRp3705
(dp3706
g13
g14
(g16
S'P\x00\x00\x00\x00\x00\x00\x00'
tRp3707
sg18
(lp3708
sg20
I3
sg21
(lp3709
I147
aI153
asbag2
(g10
g4
NtRp3710
(dp3711
g13
g14
(g16
S'Q\x00\x00\x00\x00\x00\x00\x00'
tRp3712
sg18
(lp3713
sg20
I4
sg21
(lp3714
I144
asbag2
(g10
g4
NtRp3715
(dp3716
g13
g14
(g16
S'R\x00\x00\x00\x00\x00\x00\x00'
tRp3717
sg18
(lp3718
sg20
I5
sg21
(lp3719
I133
aI135
asbag2
(g10
g4
NtRp3720
(dp3721
g13
g14
(g16
S'V\x00\x00\x00\x00\x00\x00\x00'
tRp3722
sg18
(lp3723
sg20
I6
sg21
(lp3724
I149
aI156
asbag2
(g10
g4
NtRp3725
(dp3726
g13
g14
(g16
S'S\x00\x00\x00\x00\x00\x00\x00'
tRp3727
sg18
(lp3728
sg20
I7
sg21
(lp3729
I132
aI134
aI138
asbag2
(g10
g4
NtRp3730
(dp3731
g13
g14
(g16
S'T\x00\x00\x00\x00\x00\x00\x00'
tRp3732
sg18
(lp3733
sg20
I8
sg21
(lp3734
I138
aI141
asbag2
(g10
g4
NtRp3735
(dp3736
g13
g14
(g16
S'V\x00\x00\x00\x00\x00\x00\x00'
tRp3737
sg18
(lp3738
sg20
I9
sg21
(lp3739
I157
aI159
asbasg38
I0
sbtp3740
a(S'q'
g2
(g3
g4
NtRp3741
(dp3742
g7
I44
sg8
(lp3743
g2
(g10
g4
NtRp3744
(dp3745
g13
g14
(g16
S'\x03\x00\x00\x00\x00\x00\x00\x00'
tRp3746
sg18
(lp3747
sg20
I1
sg21
(lp3748
I21
ag14
(g16
S'\x0c\x00\x00\x00\x00\x00\x00\x00'
tRp3749
asbag2
(g10
g4
NtRp3750
(dp3751
g13
g14
(g16
S'\x03\x00\x00\x00\x00\x00\x00\x00'
tRp3752
sg18
(lp3753
sg20
I2
sg21
(lp3754
I15
aI17
ag14
(g16
S'\x0b\x00\x00\x00\x00\x00\x00\x00'
tRp3755
asbag2
(g10
g4
NtRp3756
(dp3757
g13
g14
(g16
S'\x04\x00\x00\x00\x00\x00\x00\x00'
tRp3758
sg18
(lp3759
sg20
I3
sg21
(lp3760
I14
aI17
ag14
(g16
S'\x0b\x00\x00\x00\x00\x00\x00\x00'
tRp3761
asbag2
(g10
g4
NtRp3762
(dp3763
g13
g14
(g16
S'\x04\x00\x00\x00\x00\x00\x00\x00'
tRp3764
sg18
(lp3765
sg20
I4
sg21
(lp3766
I10
aI14
asbag2
(g10
g4
NtRp3767
(dp3768
g13
g14
(g16
S'\x04\x00\x00\x00\x00\x00\x00\x00'
tRp3769
sg18
(lp3770
sg20
I5
sg21
(lp3771
I9
aI13
aI17
asbag2
(g10
g4
NtRp3772
(dp3773
g13
g14
(g16
S'\x04\x00\x00\x00\x00\x00\x00\x00'
tRp3774
sg18
(lp3775
sg20
I6
sg21
(lp3776
I13
aI20
asbag2
(g10
g4
NtRp3777
(dp3778
g13
g14
(g16
S'\x05\x00\x00\x00\x00\x00\x00\x00'
tRp3779
sg18
(lp3780
sg20
I7
sg21
(lp3781
I11
aI17
asbag2
(g10
g4
NtRp3782
(dp3783
g13
g14
(g16
S'\x05\x00\x00\x00\x00\x00\x00\x00'
tRp3784
sg18
(lp3785
sg20
I8
sg21
(lp3786
I10
aI14
aI17
asbag2
(g10
g4
NtRp3787
(dp3788
g13
g14
(g16
S'\x06\x00\x00\x00\x00\x00\x00\x00'
tRp3789
sg18
(lp3790
sg20
I9
sg21
(lp3791
I12
aI16
aI18
asbag2
(g10
g4
NtRp3792
(dp3793
g13
g14
(g16
S'\x05\x00\x00\x00\x00\x00\x00\x00'
tRp3794
sg18
(lp3795
sg20
I10
sg21
(lp3796
I10
aI11
aI14
aI17
asbag2
(g10
g4
NtRp3797
(dp3798
g13
g14
(g16
S'\x04\x00\x00\x00\x00\x00\x00\x00'
tRp3799
sg18
(lp3800
sg20
I11
sg21
(lp3801
I9
aI17
asbag2
(g10
g4
NtRp3802
(dp3803
g13
g14
(g16
S'\x03\x00\x00\x00\x00\x00\x00\x00'
tRp3804
sg18
(lp3805
sg20
I12
sg21
(lp3806
I19
aI23
asbag2
(g10
g4
NtRp3807
(dp3808
g13
g14
(g16
S'\x04\x00\x00\x00\x00\x00\x00\x00'
tRp3809
sg18
(lp3810
sg20
I13
sg21
(lp3811
I10
aI14
asbag2
(g10
g4
NtRp3812
(dp3813
g13
g14
(g16
S'\x04\x00\x00\x00\x00\x00\x00\x00'
tRp3814
sg18
(lp3815
sg20
I14
sg21
(lp3816
I10
aI18
asbag2
(g10
g4
NtRp3817
(dp3818
g13
g14
(g16
S'\x05\x00\x00\x00\x00\x00\x00\x00'
tRp3819
sg18
(lp3820
sg20
I15
sg21
(lp3821
I8
asbag2
(g10
g4
NtRp3822
(dp3823
g13
g14
(g16
S'\x06\x00\x00\x00\x00\x00\x00\x00'
tRp3824
sg18
(lp3825
sg20
I16
sg21
(lp3826
I10
asbag2
(g10
g4
NtRp3827
(dp3828
g13
g14
(g16
S'\x08\x00\x00\x00\x00\x00\x00\x00'
tRp3829
sg18
(lp3830
sg20
I17
sg21
(lp3831
I11
aI12
asbag2
(g10
g4
NtRp3832
(dp3833
g13
g14
(g16
S'\x08\x00\x00\x00\x00\x00\x00\x00'
tRp3834
sg18
(lp3835
sg20
I18
sg21
(lp3836
I9
asbag2
(g10
g4
NtRp3837
(dp3838
g13
g14
(g16
S'\x06\x00\x00\x00\x00\x00\x00\x00'
tRp3839
sg18
(lp3840
sg20
I19
sg21
(lp3841
I8
asbag2
(g10
g4
NtRp3842
(dp3843
g13
g14
(g16
S'\x06\x00\x00\x00\x00\x00\x00\x00'
tRp3844
sg18
(lp3845
sg20
I20
sg21
(lp3846
I11
aI21
asbag2
(g10
g4
NtRp3847
(dp3848
g13
g14
(g16
S'\x07\x00\x00\x00\x00\x00\x00\x00'
tRp3849
sg18
(lp3850
sg20
I21
sg21
(lp3851
I12
aI14
aI21
asbag2
(g10
g4
NtRp3852
(dp3853
g13
g14
(g16
S'\x06\x00\x00\x00\x00\x00\x00\x00'
tRp3854
sg18
(lp3855
sg20
I22
sg21
(lp3856
I10
aI13
aI15
asbag2
(g10
g4
NtRp3857
(dp3858
g13
g14
(g16
S'\x03\x00\x00\x00\x00\x00\x00\x00'
tRp3859
sg18
(lp3860
sg20
I23
sg21
(lp3861
g14
(g16
S'\x0e\x00\x00\x00\x00\x00\x00\x00'
tRp3862
asbag2
(g10
g4
NtRp3863
(dp3864
g13
g14
(g16
S'\x03\x00\x00\x00\x00\x00\x00\x00'
tRp3865
sg18
(lp3866
sg20
I24
sg21
(lp3867
I7
ag14
(g16
S'\x0e\x00\x00\x00\x00\x00\x00\x00'
tRp3868
asbag2
(g10
g4
NtRp3869
(dp3870
g13
g14
(g16
S'\x03\x00\x00\x00\x00\x00\x00\x00'
tRp3871
sg18
(lp3872
sg20
I25
sg21
(lp3873
I13
ag14
(g16
S'\x10\x00\x00\x00\x00\x00\x00\x00'
tRp3874
ag14
(g16
S'\x08\x00\x00\x00\x00\x00\x00\x00'
tRp3875
asbag2
(g10
g4
NtRp3876
(dp3877
g13
g14
(g16
S'\x04\x00\x00\x00\x00\x00\x00\x00'
tRp3878
sg18
(lp3879
sg20
I26
sg21
(lp3880
g14
(g16
S'\r\x00\x00\x00\x00\x00\x00\x00'
tRp3881
asbag2
(g10
g4
NtRp3882
(dp3883
g13
g14
(g16
S'\x06\x00\x00\x00\x00\x00\x00\x00'
tRp3884
sg18
(lp3885
sg20
I27
sg21
(lp3886
I6
aI10
aI11
asbag2
(g10
g4
NtRp3887
(dp3888
g13
g14
(g16
S'\x06\x00\x00\x00\x00\x00\x00\x00'
tRp3889
sg18
(lp3890
sg20
I28
sg21
(lp3891
I6
aI16
asbag2
(g10
g4
NtRp3892
(dp3893
g13
g14
(g16
S'\x05\x00\x00\x00\x00\x00\x00\x00'
tRp3894
sg18
(lp3895
sg20
I29
sg21
(lp3896
I5
aI15
asbag2
(g10
g4
NtRp3897
(dp3898
g13
g14
(g16
S'\x05\x00\x00\x00\x00\x00\x00\x00'
tRp3899
sg18
(lp3900
sg20
I30
sg21
(lp3901
g14
(g16
S'\n\x00\x00\x00\x00\x00\x00\x00'
tRp3902
ag14
(g16
S'\x10\x00\x00\x00\x00\x00\x00\x00'
tRp3903
asbag2
(g10
g4
NtRp3904
(dp3905
g13
g14
(g16
S'\x05\x00\x00\x00\x00\x00\x00\x00'
tRp3906
sg18
(lp3907
sg20
I31
sg21
(lp3908
I9
ag14
(g16
S'\x06\x00\x00\x00\x00\x00\x00\x00'
tRp3909
ag14
(g16
S'\x0c\x00\x00\x00\x00\x00\x00\x00'
tRp3910
asbag2
(g10
g4
NtRp3911
(dp3912
g13
g14
(g16
S'\x04\x00\x00\x00\x00\x00\x00\x00'
tRp3913
sg18
(lp3914
sg20
I32
sg21
(lp3915
I10
aI14
ag14
(g16
S'\t\x00\x00\x00\x00\x00\x00\x00'
tRp3916
ag14
(g16
S'\x10\x00\x00\x00\x00\x00\x00\x00'
tRp3917
asbag2
(g10
g4
NtRp3918
(dp3919
g13
g14
(g16
S'\x03\x00\x00\x00\x00\x00\x00\x00'
tRp3920
sg18
(lp3921
sg20
I33
sg21
(lp3922
I13
asbag2
(g10
g4
NtRp3923
(dp3924
g13
g14
(g16
S'\x04\x00\x00\x00\x00\x00\x00\x00'
tRp3925
sg18
(lp3926
sg20
I34
sg21
(lp3927
I12
asbag2
(g10
g4
NtRp3928
(dp3929
g13
g14
(g16
S'\x04\x00\x00\x00\x00\x00\x00\x00'
tRp3930
sg18
(lp3931
sg20
I35
sg21
(lp3932
I20
ag14
(g16
S'\x0b\x00\x00\x00\x00\x00\x00\x00'
tRp3933
asbag2
(g10
g4
NtRp3934
(dp3935
g13
g14
(g16
S'\x05\x00\x00\x00\x00\x00\x00\x00'
tRp3936
sg18
(lp3937
sg20
I36
sg21
(lp3938
I16
ag14
(g16
S'\x06\x00\x00\x00\x00\x00\x00\x00'
tRp3939
asbag2
(g10
g4
NtRp3940
(dp3941
g13
g14
(g16
S'\x05\x00\x00\x00\x00\x00\x00\x00'
tRp3942
sg18
(lp3943
sg20
I37
sg21
(lp3944
I12
aI15
asbag2
(g10
g4
NtRp3945
(dp3946
g13
g14
(g16
S'\x05\x00\x00\x00\x00\x00\x00\x00'
tRp3947
sg18
(lp3948
sg20
I38
sg21
(lp3949
I12
aI16
asbag2
(g10
g4
NtRp3950
(dp3951
g13
g14
(g16
S'\x04\x00\x00\x00\x00\x00\x00\x00'
tRp3952
sg18
(lp3953
sg20
I39
sg21
(lp3954
I8
aI12
aI15
asbag2
(g10
g4
NtRp3955
(dp3956
g13
g14
(g16
S'\x05\x00\x00\x00\x00\x00\x00\x00'
tRp3957
sg18
(lp3958
sg20
I40
sg21
(lp3959
I7
aI13
asbag2
(g10
g4
NtRp3960
(dp3961
g13
g14
(g16
S'\x05\x00\x00\x00\x00\x00\x00\x00'
tRp3962
sg18
(lp3963
sg20
I41
sg21
(lp3964
I9
aI10
aI12
asbag2
(g10
g4
NtRp3965
(dp3966
g13
g14
(g16
S'\x04\x00\x00\x00\x00\x00\x00\x00'
tRp3967
sg18
(lp3968
sg20
I42
sg21
(lp3969
I6
aI11
aI14
ag14
(g16
S'\t\x00\x00\x00\x00\x00\x00\x00'
tRp3970
asbag2
(g10
g4
NtRp3971
(dp3972
g13
g14
(g16
S'\x05\x00\x00\x00\x00\x00\x00\x00'
tRp3973
sg18
(lp3974
sg20
I43
sg21
(lp3975
I6
aI9
asbag2
(g10
g4
NtRp3976
(dp3977
g13
g14
(g16
S'\x05\x00\x00\x00\x00\x00\x00\x00'
tRp3978
sg18
(lp3979
sg20
I44
sg21
(lp3980
I10
aI11
aI14
asbasg38
I1
sbtp3981
a(S'q'
g2
(g3
g4
NtRp3982
(dp3983
g7
I69
sg8
(lp3984
g2
(g10
g4
NtRp3985
(dp3986
g13
g14
(g16
S'/\x00\x00\x00\x00\x00\x00\x00'
tRp3987
sg18
(lp3988
sg20
I1
sg21
(lp3989
I90
asbag2
(g10
g4
NtRp3990
(dp3991
g13
g14
(g16
S'/\x00\x00\x00\x00\x00\x00\x00'
tRp3992
sg18
(lp3993
sg20
I2
sg21
(lp3994
I85
aI97
aI106
asbag2
(g10
g4
NtRp3995
(dp3996
g13
g14
(g16
S'-\x00\x00\x00\x00\x00\x00\x00'
tRp3997
sg18
(lp3998
sg20
I3
sg21
(lp3999
I81
aI94
ag14
(g16
S'd\x00\x00\x00\x00\x00\x00\x00'
tRp4000
asbag2
(g10
g4
NtRp4001
(dp4002
g13
g14
(g16
S'-\x00\x00\x00\x00\x00\x00\x00'
tRp4003
sg18
(lp4004
sg20
I4
sg21
(lp4005
I75
aI85
aI90
ag14
(g16
S'X\x00\x00\x00\x00\x00\x00\x00'
tRp4006
asbag2
(g10
g4
NtRp4007
(dp4008
g13
g14
(g16
S'/\x00\x00\x00\x00\x00\x00\x00'
tRp4009
sg18
(lp4010
sg20
I5
sg21
(lp4011
I78
aI85
ag14
(g16
S'X\x00\x00\x00\x00\x00\x00\x00'
tRp4012
asbag2
(g10
g4
NtRp4013
(dp4014
g13
g14
(g16
S'/\x00\x00\x00\x00\x00\x00\x00'
tRp4015
sg18
(lp4016
sg20
I6
sg21
(lp4017
I78
aI88
ag14
(g16
S'\\\x00\x00\x00\x00\x00\x00\x00'
tRp4018
asbag2
(g10
g4
NtRp4019
(dp4020
g13
g14
(g16
S'.\x00\x00\x00\x00\x00\x00\x00'
tRp4021
sg18
(lp4022
sg20
I7
sg21
(lp4023
I79
aI84
aI88
asbag2
(g10
g4
NtRp4024
(dp4025
g13
g14
(g16
S'/\x00\x00\x00\x00\x00\x00\x00'
tRp4026
sg18
(lp4027
sg20
I8
sg21
(lp4028
I76
aI92
ag14
(g16
S'`\x00\x00\x00\x00\x00\x00\x00'
tRp4029
asbag2
(g10
g4
NtRp4030
(dp4031
g13
g14
(g16
S'2\x00\x00\x00\x00\x00\x00\x00'
tRp4032
sg18
(lp4033
sg20
I9
sg21
(lp4034
I91
aI103
ag14
(g16
S'k\x00\x00\x00\x00\x00\x00\x00'
tRp4035
asbag2
(g10
g4
NtRp4036
(dp4037
g13
g14
(g16
S'5\x00\x00\x00\x00\x00\x00\x00'
tRp4038
sg18
(lp4039
sg20
I10
sg21
(lp4040
I84
aI95
aI101
asbag2
(g10
g4
NtRp4041
(dp4042
g13
g14
(g16
S'0\x00\x00\x00\x00\x00\x00\x00'
tRp4043
sg18
(lp4044
sg20
I11
sg21
(lp4045
I81
aI89
aI98
asbag2
(g10
g4
NtRp4046
(dp4047
g13
g14
(g16
S'-\x00\x00\x00\x00\x00\x00\x00'
tRp4048
sg18
(lp4049
sg20
I12
sg21
(lp4050
I86
aI93
aI101
asbag2
(g10
g4
NtRp4051
(dp4052
g13
g14
(g16
S'/\x00\x00\x00\x00\x00\x00\x00'
tRp4053
sg18
(lp4054
sg20
I13
sg21
(lp4055
I84
aI100
asbag2
(g10
g4
NtRp4056
(dp4057
g13
g14
(g16
S'0\x00\x00\x00\x00\x00\x00\x00'
tRp4058
sg18
(lp4059
sg20
I14
sg21
(lp4060
I82
aI85
aI90
asbag2
(g10
g4
NtRp4061
(dp4062
g13
g14
(g16
S'1\x00\x00\x00\x00\x00\x00\x00'
tRp4063
sg18
(lp4064
sg20
I15
sg21
(lp4065
I67
aI68
aI72
aI76
asbag2
(g10
g4
NtRp4066
(dp4067
g13
g14
(g16
S'/\x00\x00\x00\x00\x00\x00\x00'
tRp4068
sg18
(lp4069
sg20
I16
sg21
(lp4070
I73
aI76
aI81
asbag2
(g10
g4
NtRp4071
(dp4072
g13
g14
(g16
S'4\x00\x00\x00\x00\x00\x00\x00'
tRp4073
sg18
(lp4074
sg20
I17
sg21
(lp4075
I83
aI84
aI86
asbag2
(g10
g4
NtRp4076
(dp4077
g13
g14
(g16
S'3\x00\x00\x00\x00\x00\x00\x00'
tRp4078
sg18
(lp4079
sg20
I18
sg21
(lp4080
I88
asbag2
(g10
g4
NtRp4081
(dp4082
g13
g14
(g16
S'2\x00\x00\x00\x00\x00\x00\x00'
tRp4083
sg18
(lp4084
sg20
I19
sg21
(lp4085
I87
asbag2
(g10
g4
NtRp4086
(dp4087
g13
g14
(g16
S'0\x00\x00\x00\x00\x00\x00\x00'
tRp4088
sg18
(lp4089
sg20
I20
sg21
(lp4090
I104
asbag2
(g10
g4
NtRp4091
(dp4092
g13
g14
(g16
S'3\x00\x00\x00\x00\x00\x00\x00'
tRp4093
sg18
(lp4094
sg20
I21
sg21
(lp4095
I100
aI104
aI105
asbag2
(g10
g4
NtRp4096
(dp4097
g13
g14
(g16
S'2\x00\x00\x00\x00\x00\x00\x00'
tRp4098
sg18
(lp4099
sg20
I22
sg21
(lp4100
I98
aI109
ag14
(g16
S'k\x00\x00\x00\x00\x00\x00\x00'
tRp4101
asbag2
(g10
g4
NtRp4102
(dp4103
g13
g14
(g16
S'4\x00\x00\x00\x00\x00\x00\x00'
tRp4104
sg18
(lp4105
sg20
I23
sg21
(lp4106
I89
aI93
asbag2
(g10
g4
NtRp4107
(dp4108
g13
g14
(g16
S'5\x00\x00\x00\x00\x00\x00\x00'
tRp4109
sg18
(lp4110
sg20
I24
sg21
(lp4111
I88
aI93
aI96
asbag2
(g10
g4
NtRp4112
(dp4113
g13
g14
(g16
S'1\x00\x00\x00\x00\x00\x00\x00'
tRp4114
sg18
(lp4115
sg20
I25
sg21
(lp4116
I78
aI86
ag14
(g16
S'T\x00\x00\x00\x00\x00\x00\x00'
tRp4117
asbag2
(g10
g4
NtRp4118
(dp4119
g13
g14
(g16
S'6\x00\x00\x00\x00\x00\x00\x00'
tRp4120
sg18
(lp4121
sg20
I26
sg21
(lp4122
I83
aI90
ag14
(g16
S'V\x00\x00\x00\x00\x00\x00\x00'
tRp4123
asbag2
(g10
g4
NtRp4124
(dp4125
g13
g14
(g16
S'6\x00\x00\x00\x00\x00\x00\x00'
tRp4126
sg18
(lp4127
sg20
I27
sg21
(lp4128
I85
ag14
(g16
S'^\x00\x00\x00\x00\x00\x00\x00'
tRp4129
asbag2
(g10
g4
NtRp4130
(dp4131
g13
g14
(g16
S'7\x00\x00\x00\x00\x00\x00\x00'
tRp4132
sg18
(lp4133
sg20
I28
sg21
(lp4134
I96
aI99
aI100
aI102
asbag2
(g10
g4
NtRp4135
(dp4136
g13
g14
(g16
S'6\x00\x00\x00\x00\x00\x00\x00'
tRp4137
sg18
(lp4138
sg20
I29
sg21
(lp4139
I92
aI98
aI99
asbag2
(g10
g4
NtRp4140
(dp4141
g13
g14
(g16
S'5\x00\x00\x00\x00\x00\x00\x00'
tRp4142
sg18
(lp4143
sg20
I30
sg21
(lp4144
I97
aI98
aI99
aI100
aI101
asbag2
(g10
g4
NtRp4145
(dp4146
g13
g14
(g16
S'4\x00\x00\x00\x00\x00\x00\x00'
tRp4147
sg18
(lp4148
sg20
I31
sg21
(lp4149
I99
aI100
aI103
aI105
aI107
asbag2
(g10
g4
NtRp4150
(dp4151
g13
g14
(g16
S'2\x00\x00\x00\x00\x00\x00\x00'
tRp4152
sg18
(lp4153
sg20
I32
sg21
(lp4154
I100
aI101
aI103
asbag2
(g10
g4
NtRp4155
(dp4156
g13
g14
(g16
S'4\x00\x00\x00\x00\x00\x00\x00'
tRp4157
sg18
(lp4158
sg20
I33
sg21
(lp4159
I88
aI93
aI94
aI97
asbag2
(g10
g4
NtRp4160
(dp4161
g13
g14
(g16
S'6\x00\x00\x00\x00\x00\x00\x00'
tRp4162
sg18
(lp4163
sg20
I34
sg21
(lp4164
I102
aI105
asbag2
(g10
g4
NtRp4165
(dp4166
g13
g14
(g16
S'5\x00\x00\x00\x00\x00\x00\x00'
tRp4167
sg18
(lp4168
sg20
I35
sg21
(lp4169
I92
aI95
asbag2
(g10
g4
NtRp4170
(dp4171
g13
g14
(g16
S'3\x00\x00\x00\x00\x00\x00\x00'
tRp4172
sg18
(lp4173
sg20
I36
sg21
(lp4174
I97
aI99
asbag2
(g10
g4
NtRp4175
(dp4176
g13
g14
(g16
S'5\x00\x00\x00\x00\x00\x00\x00'
tRp4177
sg18
(lp4178
sg20
I37
sg21
(lp4179
I96
aI98
asbag2
(g10
g4
NtRp4180
(dp4181
g13
g14
(g16
S'2\x00\x00\x00\x00\x00\x00\x00'
tRp4182
sg18
(lp4183
sg20
I38
sg21
(lp4184
I112
asbag2
(g10
g4
NtRp4185
(dp4186
g13
g14
(g16
S'3\x00\x00\x00\x00\x00\x00\x00'
tRp4187
sg18
(lp4188
sg20
I39
sg21
(lp4189
I91
asbag2
(g10
g4
NtRp4190
(dp4191
g13
g14
(g16
S'0\x00\x00\x00\x00\x00\x00\x00'
tRp4192
sg18
(lp4193
sg20
I40
sg21
(lp4194
sbag2
(g10
g4
NtRp4195
(dp4196
g13
g14
(g16
S'1\x00\x00\x00\x00\x00\x00\x00'
tRp4197
sg18
(lp4198
sg20
I41
sg21
(lp4199
I87
asbag2
(g10
g4
NtRp4200
(dp4201
g13
g14
(g16
S'.\x00\x00\x00\x00\x00\x00\x00'
tRp4202
sg18
(lp4203
sg20
I42
sg21
(lp4204
I77
asbag2
(g10
g4
NtRp4205
(dp4206
g13
g14
(g16
S'1\x00\x00\x00\x00\x00\x00\x00'
tRp4207
sg18
(lp4208
sg20
I43
sg21
(lp4209
I73
aI74
ag14
(g16
S'T\x00\x00\x00\x00\x00\x00\x00'
tRp4210
asbag2
(g10
g4
NtRp4211
(dp4212
g13
g14
(g16
S'1\x00\x00\x00\x00\x00\x00\x00'
tRp4213
sg18
(lp4214
sg20
I44
sg21
(lp4215
I84
aI86
ag14
(g16
S'a\x00\x00\x00\x00\x00\x00\x00'
tRp4216
asbag2
(g10
g4
NtRp4217
(dp4218
g13
g14
(g16
S'/\x00\x00\x00\x00\x00\x00\x00'
tRp4219
sg18
(lp4220
sg20
I45
sg21
(lp4221
I81
aI83
aI93
ag14
(g16
S'^\x00\x00\x00\x00\x00\x00\x00'
tRp4222
asbag2
(g10
g4
NtRp4223
(dp4224
g13
g14
(g16
S'0\x00\x00\x00\x00\x00\x00\x00'
tRp4225
sg18
(lp4226
sg20
I46
sg21
(lp4227
I94
asbag2
(g10
g4
NtRp4228
(dp4229
g13
g14
(g16
S'.\x00\x00\x00\x00\x00\x00\x00'
tRp4230
sg18
(lp4231
sg20
I47
sg21
(lp4232
I95
asbag2
(g10
g4
NtRp4233
(dp4234
g13
g14
(g16
S'2\x00\x00\x00\x00\x00\x00\x00'
tRp4235
sg18
(lp4236
sg20
I48
sg21
(lp4237
I104
asbag2
(g10
g4
NtRp4238
(dp4239
g13
g14
(g16
S'4\x00\x00\x00\x00\x00\x00\x00'
tRp4240
sg18
(lp4241
sg20
I49
sg21
(lp4242
I95
aI102
asbag2
(g10
g4
NtRp4243
(dp4244
g13
g14
(g16
S'2\x00\x00\x00\x00\x00\x00\x00'
tRp4245
sg18
(lp4246
sg20
I50
sg21
(lp4247
I91
aI99
asbag2
(g10
g4
NtRp4248
(dp4249
g13
g14
(g16
S'-\x00\x00\x00\x00\x00\x00\x00'
tRp4250
sg18
(lp4251
sg20
I51
sg21
(lp4252
I86
asbag2
(g10
g4
NtRp4253
(dp4254
g13
g14
(g16
S'0\x00\x00\x00\x00\x00\x00\x00'
tRp4255
sg18
(lp4256
sg20
I52
sg21
(lp4257
I98
aI109
asbag2
(g10
g4
NtRp4258
(dp4259
g13
g14
(g16
S'1\x00\x00\x00\x00\x00\x00\x00'
tRp4260
sg18
(lp4261
sg20
I53
sg21
(lp4262
I88
aI96
asbag2
(g10
g4
NtRp4263
(dp4264
g13
g14
(g16
S'.\x00\x00\x00\x00\x00\x00\x00'
tRp4265
sg18
(lp4266
sg20
I54
sg21
(lp4267
I93
aI98
asbag2
(g10
g4
NtRp4268
(dp4269
g13
g14
(g16
S'3\x00\x00\x00\x00\x00\x00\x00'
tRp4270
sg18
(lp4271
sg20
I55
sg21
(lp4272
I101
asbag2
(g10
g4
NtRp4273
(dp4274
g13
g14
(g16
S'2\x00\x00\x00\x00\x00\x00\x00'
tRp4275
sg18
(lp4276
sg20
I56
sg21
(lp4277
I95
aI97
asbag2
(g10
g4
NtRp4278
(dp4279
g13
g14
(g16
S'5\x00\x00\x00\x00\x00\x00\x00'
tRp4280
sg18
(lp4281
sg20
I57
sg21
(lp4282
I98
aI100
asbag2
(g10
g4
NtRp4283
(dp4284
g13
g14
(g16
S'1\x00\x00\x00\x00\x00\x00\x00'
tRp4285
sg18
(lp4286
sg20
I58
sg21
(lp4287
I97
aI98
aI102
asbag2
(g10
g4
NtRp4288
(dp4289
g13
g14
(g16
S'0\x00\x00\x00\x00\x00\x00\x00'
tRp4290
sg18
(lp4291
sg20
I59
sg21
(lp4292
I90
aI96
aI101
aI103
asbag2
(g10
g4
NtRp4293
(dp4294
g13
g14
(g16
S'-\x00\x00\x00\x00\x00\x00\x00'
tRp4295
sg18
(lp4296
sg20
I60
sg21
(lp4297
I84
aI89
aI91
asbag2
(g10
g4
NtRp4298
(dp4299
g13
g14
(g16
S'-\x00\x00\x00\x00\x00\x00\x00'
tRp4300
sg18
(lp4301
sg20
I61
sg21
(lp4302
I87
aI90
asbag2
(g10
g4
NtRp4303
(dp4304
g13
g14
(g16
S'-\x00\x00\x00\x00\x00\x00\x00'
tRp4305
sg18
(lp4306
sg20
I62
sg21
(lp4307
I75
aI89
asbag2
(g10
g4
NtRp4308
(dp4309
g13
g14
(g16
S'*\x00\x00\x00\x00\x00\x00\x00'
tRp4310
sg18
(lp4311
sg20
I63
sg21
(lp4312
I84
aI85
aI88
asbag2
(g10
g4
NtRp4313
(dp4314
g13
g14
(g16
S'*\x00\x00\x00\x00\x00\x00\x00'
tRp4315
sg18
(lp4316
sg20
I64
sg21
(lp4317
I76
aI94
asbag2
(g10
g4
NtRp4318
(dp4319
g13
g14
(g16
S'*\x00\x00\x00\x00\x00\x00\x00'
tRp4320
sg18
(lp4321
sg20
I65
sg21
(lp4322
I94
aI97
asbag2
(g10
g4
NtRp4323
(dp4324
g13
g14
(g16
S'-\x00\x00\x00\x00\x00\x00\x00'
tRp4325
sg18
(lp4326
sg20
I66
sg21
(lp4327
I90
aI106
aI108
asbag2
(g10
g4
NtRp4328
(dp4329
g13
g14
(g16
S',\x00\x00\x00\x00\x00\x00\x00'
tRp4330
sg18
(lp4331
sg20
I67
sg21
(lp4332
I72
aI81
asbag2
(g10
g4
NtRp4333
(dp4334
g13
g14
(g16
S'-\x00\x00\x00\x00\x00\x00\x00'
tRp4335
sg18
(lp4336
sg20
I68
sg21
(lp4337
I79
aI83
aI86
asbag2
(g10
g4
NtRp4338
(dp4339
g13
g14
(g16
S',\x00\x00\x00\x00\x00\x00\x00'
tRp4340
sg18
(lp4341
sg20
I69
sg21
(lp4342
I77
aI78
aI85
asbasg38
I1
sbtp4343
a(S'q'
g2
(g3
g4
NtRp4344
(dp4345
g7
I6
sg8
(lp4346
g2
(g10
g4
NtRp4347
(dp4348
g13
g14
(g16
S'=\x00\x00\x00\x00\x00\x00\x00'
tRp4349
sg18
(lp4350
sg20
I4
sg21
(lp4351
I113
aI119
asbag2
(g10
g4
NtRp4352
(dp4353
g13
g14
(g16
S'>\x00\x00\x00\x00\x00\x00\x00'
tRp4354
sg18
(lp4355
sg20
I5
sg21
(lp4356
I108
asbag2
(g10
g4
NtRp4357
(dp4358
g13
g14
(g16
S'>\x00\x00\x00\x00\x00\x00\x00'
tRp4359
sg18
(lp4360
sg20
I6
sg21
(lp4361
I108
aI116
asbasg38
I4
sbtp4362
a(S'q'
g2
(g3
g4
NtRp4363
(dp4364
g7
I7
sg8
(lp4365
g2
(g10
g4
NtRp4366
(dp4367
g13
g14
(g16
S'\x1d\x00\x00\x00\x00\x00\x00\x00'
tRp4368
sg18
(lp4369
sg20
I6
sg21
(lp4370
I53
aI57
asbag2
(g10
g4
NtRp4371
(dp4372
g13
g14
(g16
S'\x1c\x00\x00\x00\x00\x00\x00\x00'
tRp4373
sg18
(lp4374
sg20
I7
sg21
(lp4375
I44
asbasg38
I6
sbtp4376
a(S'q'
g2
(g3
g4
NtRp4377
(dp4378
g7
I40
sg8
(lp4379
g2
(g10
g4
NtRp4380
(dp4381
g13
g14
(g16
S'U\x00\x00\x00\x00\x00\x00\x00'
tRp4382
sg18
(lp4383
sg20
I8
sg21
(lp4384
sbag2
(g10
g4
NtRp4385
(dp4386
g13
g14
(g16
S'W\x00\x00\x00\x00\x00\x00\x00'
tRp4387
sg18
(lp4388
sg20
I9
sg21
(lp4389
I160
asbag2
(g10
g4
NtRp4390
(dp4391
g13
g14
(g16
S'X\x00\x00\x00\x00\x00\x00\x00'
tRp4392
sg18
(lp4393
sg20
I10
sg21
(lp4394
I149
asbag2
(g10
g4
NtRp4395
(dp4396
g13
g14
(g16
S'U\x00\x00\x00\x00\x00\x00\x00'
tRp4397
sg18
(lp4398
sg20
I11
sg21
(lp4399
I146
aI150
asbag2
(g10
g4
NtRp4400
(dp4401
g13
g14
(g16
S'T\x00\x00\x00\x00\x00\x00\x00'
tRp4402
sg18
(lp4403
sg20
I12
sg21
(lp4404
sbag2
(g10
g4
NtRp4405
(dp4406
g13
g14
(g16
S'R\x00\x00\x00\x00\x00\x00\x00'
tRp4407
sg18
(lp4408
sg20
I13
sg21
(lp4409
sbag2
(g10
g4
NtRp4410
(dp4411
g13
g14
(g16
S'U\x00\x00\x00\x00\x00\x00\x00'
tRp4412
sg18
(lp4413
sg20
I14
sg21
(lp4414
sbag2
(g10
g4
NtRp4415
(dp4416
g13
g14
(g16
S'Q\x00\x00\x00\x00\x00\x00\x00'
tRp4417
sg18
(lp4418
sg20
I15
sg21
(lp4419
sbag2
(g10
g4
NtRp4420
(dp4421
g13
g14
(g16
S'P\x00\x00\x00\x00\x00\x00\x00'
tRp4422
sg18
(lp4423
sg20
I16
sg21
(lp4424
I125
asbag2
(g10
g4
NtRp4425
(dp4426
g13
g14
(g16
S'S\x00\x00\x00\x00\x00\x00\x00'
tRp4427
sg18
(lp4428
sg20
I17
sg21
(lp4429
sbag2
(g10
g4
NtRp4430
(dp4431
g13
g14
(g16
S'X\x00\x00\x00\x00\x00\x00\x00'
tRp4432
sg18
(lp4433
sg20
I18
sg21
(lp4434
g14
(g16
S'\x8f\x00\x00\x00\x00\x00\x00\x00'
tRp4435
asbag2
(g10
g4
NtRp4436
(dp4437
g13
g14
(g16
S'T\x00\x00\x00\x00\x00\x00\x00'
tRp4438
sg18
(lp4439
sg20
I19
sg21
(lp4440
I131
asbag2
(g10
g4
NtRp4441
(dp4442
g13
g14
(g16
S'U\x00\x00\x00\x00\x00\x00\x00'
tRp4443
sg18
(lp4444
sg20
I20
sg21
(lp4445
I147
asbag2
(g10
g4
NtRp4446
(dp4447
g13
g14
(g16
S'S\x00\x00\x00\x00\x00\x00\x00'
tRp4448
sg18
(lp4449
sg20
I21
sg21
(lp4450
I156
asbag2
(g10
g4
NtRp4451
(dp4452
g13
g14
(g16
S'P\x00\x00\x00\x00\x00\x00\x00'
tRp4453
sg18
(lp4454
sg20
I22
sg21
(lp4455
I161
asbag2
(g10
g4
NtRp4456
(dp4457
g13
g14
(g16
S'S\x00\x00\x00\x00\x00\x00\x00'
tRp4458
sg18
(lp4459
sg20
I23
sg21
(lp4460
sbag2
(g10
g4
NtRp4461
(dp4462
g13
g14
(g16
S'V\x00\x00\x00\x00\x00\x00\x00'
tRp4463
sg18
(lp4464
sg20
I24
sg21
(lp4465
sbag2
(g10
g4
NtRp4466
(dp4467
g13
g14
(g16
S'R\x00\x00\x00\x00\x00\x00\x00'
tRp4468
sg18
(lp4469
sg20
I25
sg21
(lp4470
sbag2
(g10
g4
NtRp4471
(dp4472
g13
g14
(g16
S'Y\x00\x00\x00\x00\x00\x00\x00'
tRp4473
sg18
(lp4474
sg20
I26
sg21
(lp4475
sbag2
(g10
g4
NtRp4476
(dp4477
g13
g14
(g16
S'X\x00\x00\x00\x00\x00\x00\x00'
tRp4478
sg18
(lp4479
sg20
I27
sg21
(lp4480
sbag2
(g10
g4
NtRp4481
(dp4482
g13
g14
(g16
S'T\x00\x00\x00\x00\x00\x00\x00'
tRp4483
sg18
(lp4484
sg20
I28
sg21
(lp4485
sbag2
(g10
g4
NtRp4486
(dp4487
g13
g14
(g16
S'S\x00\x00\x00\x00\x00\x00\x00'
tRp4488
sg18
(lp4489
sg20
I29
sg21
(lp4490
sbag2
(g10
g4
NtRp4491
(dp4492
g13
g14
(g16
S'P\x00\x00\x00\x00\x00\x00\x00'
tRp4493
sg18
(lp4494
sg20
I30
sg21
(lp4495
sbag2
(g10
g4
NtRp4496
(dp4497
g13
g14
(g16
S'P\x00\x00\x00\x00\x00\x00\x00'
tRp4498
sg18
(lp4499
sg20
I31
sg21
(lp4500
sbag2
(g10
g4
NtRp4501
(dp4502
g13
g14
(g16
S'P\x00\x00\x00\x00\x00\x00\x00'
tRp4503
sg18
(lp4504
sg20
I32
sg21
(lp4505
sbag2
(g10
g4
NtRp4506
(dp4507
g13
g14
(g16
S'P\x00\x00\x00\x00\x00\x00\x00'
tRp4508
sg18
(lp4509
sg20
I33
sg21
(lp4510
sbag2
(g10
g4
NtRp4511
(dp4512
g13
g14
(g16
S'V\x00\x00\x00\x00\x00\x00\x00'
tRp4513
sg18
(lp4514
sg20
I34
sg21
(lp4515
sbag2
(g10
g4
NtRp4516
(dp4517
g13
g14
(g16
S'R\x00\x00\x00\x00\x00\x00\x00'
tRp4518
sg18
(lp4519
sg20
I35
sg21
(lp4520
sbag2
(g10
g4
NtRp4521
(dp4522
g13
g14
(g16
S'O\x00\x00\x00\x00\x00\x00\x00'
tRp4523
sg18
(lp4524
sg20
I36
sg21
(lp4525
sbag2
(g10
g4
NtRp4526
(dp4527
g13
g14
(g16
S'R\x00\x00\x00\x00\x00\x00\x00'
tRp4528
sg18
(lp4529
sg20
I37
sg21
(lp4530
sbag2
(g10
g4
NtRp4531
(dp4532
g13
g14
(g16
S'P\x00\x00\x00\x00\x00\x00\x00'
tRp4533
sg18
(lp4534
sg20
I38
sg21
(lp4535
I168
asbag2
(g10
g4
NtRp4536
(dp4537
g13
g14
(g16
S'Q\x00\x00\x00\x00\x00\x00\x00'
tRp4538
sg18
(lp4539
sg20
I39
sg21
(lp4540
sbag2
(g10
g4
NtRp4541
(dp4542
g13
g14
(g16
S'K\x00\x00\x00\x00\x00\x00\x00'
tRp4543
sg18
(lp4544
sg20
I40
sg21
(lp4545
sbasg38
I8
sbtp4546
a(S'q'
g2
(g3
g4
NtRp4547
(dp4548
g7
I29
sg8
(lp4549
g2
(g10
g4
NtRp4550
(dp4551
g13
g14
(g16
S':\x00\x00\x00\x00\x00\x00\x00'
tRp4552
sg18
(lp4553
sg20
I8
sg21
(lp4554
sbag2
(g10
g4
NtRp4555
(dp4556
g13
g14
(g16
S'<\x00\x00\x00\x00\x00\x00\x00'
tRp4557
sg18
(lp4558
sg20
I9
sg21
(lp4559
I120
ag14
(g16
S'y\x00\x00\x00\x00\x00\x00\x00'
tRp4560
asbag2
(g10
g4
NtRp4561
(dp4562
g13
g14
(g16
S';\x00\x00\x00\x00\x00\x00\x00'
tRp4563
sg18
(lp4564
sg20
I10
sg21
(lp4565
I109
ag14
(g16
S'r\x00\x00\x00\x00\x00\x00\x00'
tRp4566
asbag2
(g10
g4
NtRp4567
(dp4568
g13
g14
(g16
S'9\x00\x00\x00\x00\x00\x00\x00'
tRp4569
sg18
(lp4570
sg20
I11
sg21
(lp4571
sbag2
(g10
g4
NtRp4572
(dp4573
g13
g14
(g16
S'6\x00\x00\x00\x00\x00\x00\x00'
tRp4574
sg18
(lp4575
sg20
I12
sg21
(lp4576
sbag2
(g10
g4
NtRp4577
(dp4578
g13
g14
(g16
S'9\x00\x00\x00\x00\x00\x00\x00'
tRp4579
sg18
(lp4580
sg20
I13
sg21
(lp4581
I114
asbag2
(g10
g4
NtRp4582
(dp4583
g13
g14
(g16
S'8\x00\x00\x00\x00\x00\x00\x00'
tRp4584
sg18
(lp4585
sg20
I14
sg21
(lp4586
sbag2
(g10
g4
NtRp4587
(dp4588
g13
g14
(g16
S'7\x00\x00\x00\x00\x00\x00\x00'
tRp4589
sg18
(lp4590
sg20
I15
sg21
(lp4591
sbag2
(g10
g4
NtRp4592
(dp4593
g13
g14
(g16
S'9\x00\x00\x00\x00\x00\x00\x00'
tRp4594
sg18
(lp4595
sg20
I16
sg21
(lp4596
sbag2
(g10
g4
NtRp4597
(dp4598
g13
g14
(g16
S'>\x00\x00\x00\x00\x00\x00\x00'
tRp4599
sg18
(lp4600
sg20
I17
sg21
(lp4601
I95
asbag2
(g10
g4
NtRp4602
(dp4603
g13
g14
(g16
S'>\x00\x00\x00\x00\x00\x00\x00'
tRp4604
sg18
(lp4605
sg20
I18
sg21
(lp4606
I96
asbag2
(g10
g4
NtRp4607
(dp4608
g13
g14
(g16
S';\x00\x00\x00\x00\x00\x00\x00'
tRp4609
sg18
(lp4610
sg20
I19
sg21
(lp4611
I91
asbag2
(g10
g4
NtRp4612
(dp4613
g13
g14
(g16
S'8\x00\x00\x00\x00\x00\x00\x00'
tRp4614
sg18
(lp4615
sg20
I20
sg21
(lp4616
sbag2
(g10
g4
NtRp4617
(dp4618
g13
g14
(g16
S'9\x00\x00\x00\x00\x00\x00\x00'
tRp4619
sg18
(lp4620
sg20
I21
sg21
(lp4621
sbag2
(g10
g4
NtRp4622
(dp4623
g13
g14
(g16
S'8\x00\x00\x00\x00\x00\x00\x00'
tRp4624
sg18
(lp4625
sg20
I22
sg21
(lp4626
I120
asbag2
(g10
g4
NtRp4627
(dp4628
g13
g14
(g16
S';\x00\x00\x00\x00\x00\x00\x00'
tRp4629
sg18
(lp4630
sg20
I23
sg21
(lp4631
I104
aI106
aI107
asbag2
(g10
g4
NtRp4632
(dp4633
g13
g14
(g16
S';\x00\x00\x00\x00\x00\x00\x00'
tRp4634
sg18
(lp4635
sg20
I24
sg21
(lp4636
I100
aI105
aI109
asbag2
(g10
g4
NtRp4637
(dp4638
g13
g14
(g16
S'8\x00\x00\x00\x00\x00\x00\x00'
tRp4639
sg18
(lp4640
sg20
I25
sg21
(lp4641
I90
aI94
aI98
asbag2
(g10
g4
NtRp4642
(dp4643
g13
g14
(g16
S';\x00\x00\x00\x00\x00\x00\x00'
tRp4644
sg18
(lp4645
sg20
I26
sg21
(lp4646
I97
aI100
asbag2
(g10
g4
NtRp4647
(dp4648
g13
g14
(g16
S';\x00\x00\x00\x00\x00\x00\x00'
tRp4649
sg18
(lp4650
sg20
I27
sg21
(lp4651
I99
aI110
asbag2
(g10
g4
NtRp4652
(dp4653
g13
g14
(g16
S'<\x00\x00\x00\x00\x00\x00\x00'
tRp4654
sg18
(lp4655
sg20
I28
sg21
(lp4656
I109
aI115
asbag2
(g10
g4
NtRp4657
(dp4658
g13
g14
(g16
S';\x00\x00\x00\x00\x00\x00\x00'
tRp4659
sg18
(lp4660
sg20
I29
sg21
(lp4661
I105
aI115
asbasg38
I8
sbtp4662
a(S'q'
g2
(g3
g4
NtRp4663
(dp4664
g7
I10
sg8
(lp4665
g2
(g10
g4
NtRp4666
(dp4667
g13
g14
(g16
S'\r\x00\x00\x00\x00\x00\x00\x00'
tRp4668
sg18
(lp4669
sg20
I8
sg21
(lp4670
I23
aI27
asbag2
(g10
g4
NtRp4671
(dp4672
g13
g14
(g16
S'\r\x00\x00\x00\x00\x00\x00\x00'
tRp4673
sg18
(lp4674
sg20
I9
sg21
(lp4675
g14
(g16
S'\x1c\x00\x00\x00\x00\x00\x00\x00'
tRp4676
asbag2
(g10
g4
NtRp4677
(dp4678
g13
g14
(g16
S'\x0e\x00\x00\x00\x00\x00\x00\x00'
tRp4679
sg18
(lp4680
sg20
I10
sg21
(lp4681
I25
ag14
(g16
S'\x17\x00\x00\x00\x00\x00\x00\x00'
tRp4682
asbasg38
I8
sbtp4683
a(S'q'
g2
(g3
g4
NtRp4684
(dp4685
g7
I15
sg8
(lp4686
g2
(g10
g4
NtRp4687
(dp4688
g13
g14
(g16
S'7\x00\x00\x00\x00\x00\x00\x00'
tRp4689
sg18
(lp4690
sg20
I9
sg21
(lp4691
I116
asbag2
(g10
g4
NtRp4692
(dp4693
g13
g14
(g16
S'8\x00\x00\x00\x00\x00\x00\x00'
tRp4694
sg18
(lp4695
sg20
I10
sg21
(lp4696
g14
(g16
S'd\x00\x00\x00\x00\x00\x00\x00'
tRp4697
asbag2
(g10
g4
NtRp4698
(dp4699
g13
g14
(g16
S'2\x00\x00\x00\x00\x00\x00\x00'
tRp4700
sg18
(lp4701
sg20
I11
sg21
(lp4702
g14
(g16
S'`\x00\x00\x00\x00\x00\x00\x00'
tRp4703
asbag2
(g10
g4
NtRp4704
(dp4705
g13
g14
(g16
S'1\x00\x00\x00\x00\x00\x00\x00'
tRp4706
sg18
(lp4707
sg20
I12
sg21
(lp4708
I100
aI103
asbag2
(g10
g4
NtRp4709
(dp4710
g13
g14
(g16
S'2\x00\x00\x00\x00\x00\x00\x00'
tRp4711
sg18
(lp4712
sg20
I13
sg21
(lp4713
I99
aI102
asbag2
(g10
g4
NtRp4714
(dp4715
g13
g14
(g16
S'1\x00\x00\x00\x00\x00\x00\x00'
tRp4716
sg18
(lp4717
sg20
I14
sg21
(lp4718
I89
aI93
asbag2
(g10
g4
NtRp4719
(dp4720
g13
g14
(g16
S'2\x00\x00\x00\x00\x00\x00\x00'
tRp4721
sg18
(lp4722
sg20
I15
sg21
(lp4723
I75
aI81
asbasg38
I9
sbtp4724
a(S'q'
g2
(g3
g4
NtRp4725
(dp4726
g7
I11
sg8
(lp4727
g2
(g10
g4
NtRp4728
(dp4729
g13
g14
(g16
S'\x02\x00\x00\x00\x00\x00\x00\x00'
tRp4730
sg18
(lp4731
sg20
I9
sg21
(lp4732
I13
aI19
asbag2
(g10
g4
NtRp4733
(dp4734
g13
g14
(g16
S'\x03\x00\x00\x00\x00\x00\x00\x00'
tRp4735
sg18
(lp4736
sg20
I10
sg21
(lp4737
I12
ag14
(g16
S'\x10\x00\x00\x00\x00\x00\x00\x00'
tRp4738
asbag2
(g10
g4
NtRp4739
(dp4740
g13
g14
(g16
S'\x06\x00\x00\x00\x00\x00\x00\x00'
tRp4741
sg18
(lp4742
sg20
I11
sg21
(lp4743
g14
(g16
S'\x15\x00\x00\x00\x00\x00\x00\x00'
tRp4744
asbasg38
I9
sbtp4745
a(S'r'
g2
(g3
g4
NtRp4746
(dp4747
g7
I64
sg8
(lp4748
g2
(g10
g4
NtRp4749
(dp4750
g13
g14
(g16
S'\x0b\x00\x00\x00\x00\x00\x00\x00'
tRp4751
sg18
(lp4752
sg20
I9
sg21
(lp4753
I22
asbag2
(g10
g4
NtRp4754
(dp4755
g13
g14
(g16
S'\x0c\x00\x00\x00\x00\x00\x00\x00'
tRp4756
sg18
(lp4757
sg20
I10
sg21
(lp4758
I18
ag14
(g16
S'\x1c\x00\x00\x00\x00\x00\x00\x00'
tRp4759
asbag2
(g10
g4
NtRp4760
(dp4761
g13
g14
(g16
S'\x0c\x00\x00\x00\x00\x00\x00\x00'
tRp4762
sg18
(lp4763
sg20
I11
sg21
(lp4764
I20
aI26
ag14
(g16
S'\x1e\x00\x00\x00\x00\x00\x00\x00'
tRp4765
asbag2
(g10
g4
NtRp4766
(dp4767
g13
g14
(g16
S'\x0b\x00\x00\x00\x00\x00\x00\x00'
tRp4768
sg18
(lp4769
sg20
I12
sg21
(lp4770
I20
asbag2
(g10
g4
NtRp4771
(dp4772
g13
g14
(g16
S'\x0b\x00\x00\x00\x00\x00\x00\x00'
tRp4773
sg18
(lp4774
sg20
I13
sg21
(lp4775
I13
asbag2
(g10
g4
NtRp4776
(dp4777
g13
g14
(g16
S'\x0b\x00\x00\x00\x00\x00\x00\x00'
tRp4778
sg18
(lp4779
sg20
I14
sg21
(lp4780
I20
aI22
asbag2
(g10
g4
NtRp4781
(dp4782
g13
g14
(g16
S'\x0b\x00\x00\x00\x00\x00\x00\x00'
tRp4783
sg18
(lp4784
sg20
I15
sg21
(lp4785
I12
asbag2
(g10
g4
NtRp4786
(dp4787
g13
g14
(g16
S'\x0c\x00\x00\x00\x00\x00\x00\x00'
tRp4788
sg18
(lp4789
sg20
I16
sg21
(lp4790
I14
aI16
asbag2
(g10
g4
NtRp4791
(dp4792
g13
g14
(g16
S'\x0c\x00\x00\x00\x00\x00\x00\x00'
tRp4793
sg18
(lp4794
sg20
I17
sg21
(lp4795
I15
aI20
asbag2
(g10
g4
NtRp4796
(dp4797
g13
g14
(g16
S'\x0c\x00\x00\x00\x00\x00\x00\x00'
tRp4798
sg18
(lp4799
sg20
I18
sg21
(lp4800
I11
aI17
asbag2
(g10
g4
NtRp4801
(dp4802
g13
g14
(g16
S'\t\x00\x00\x00\x00\x00\x00\x00'
tRp4803
sg18
(lp4804
sg20
I19
sg21
(lp4805
I10
asbag2
(g10
g4
NtRp4806
(dp4807
g13
g14
(g16
S'\t\x00\x00\x00\x00\x00\x00\x00'
tRp4808
sg18
(lp4809
sg20
I20
sg21
(lp4810
I17
aI24
asbag2
(g10
g4
NtRp4811
(dp4812
g13
g14
(g16
S'\n\x00\x00\x00\x00\x00\x00\x00'
tRp4813
sg18
(lp4814
sg20
I21
sg21
(lp4815
I16
aI22
asbag2
(g10
g4
NtRp4816
(dp4817
g13
g14
(g16
S'\n\x00\x00\x00\x00\x00\x00\x00'
tRp4818
sg18
(lp4819
sg20
I22
sg21
(lp4820
I14
aI21
asbag2
(g10
g4
NtRp4821
(dp4822
g13
g14
(g16
S'\n\x00\x00\x00\x00\x00\x00\x00'
tRp4823
sg18
(lp4824
sg20
I23
sg21
(lp4825
I13
aI18
aI20
asbag2
(g10
g4
NtRp4826
(dp4827
g13
g14
(g16
S'\n\x00\x00\x00\x00\x00\x00\x00'
tRp4828
sg18
(lp4829
sg20
I24
sg21
(lp4830
I11
aI20
asbag2
(g10
g4
NtRp4831
(dp4832
g13
g14
(g16
S'\n\x00\x00\x00\x00\x00\x00\x00'
tRp4833
sg18
(lp4834
sg20
I25
sg21
(lp4835
I14
aI21
asbag2
(g10
g4
NtRp4836
(dp4837
g13
g14
(g16
S'\t\x00\x00\x00\x00\x00\x00\x00'
tRp4838
sg18
(lp4839
sg20
I26
sg21
(lp4840
I11
aI15
aI20
asbag2
(g10
g4
NtRp4841
(dp4842
g13
g14
(g16
S'\t\x00\x00\x00\x00\x00\x00\x00'
tRp4843
sg18
(lp4844
sg20
I27
sg21
(lp4845
I15
asbag2
(g10
g4
NtRp4846
(dp4847
g13
g14
(g16
S'\r\x00\x00\x00\x00\x00\x00\x00'
tRp4848
sg18
(lp4849
sg20
I28
sg21
(lp4850
I12
aI17
aI22
asbag2
(g10
g4
NtRp4851
(dp4852
g13
g14
(g16
S'\r\x00\x00\x00\x00\x00\x00\x00'
tRp4853
sg18
(lp4854
sg20
I29
sg21
(lp4855
I11
aI18
aI21
asbag2
(g10
g4
NtRp4856
(dp4857
g13
g14
(g16
S'\x0c\x00\x00\x00\x00\x00\x00\x00'
tRp4858
sg18
(lp4859
sg20
I30
sg21
(lp4860
I15
aI18
aI22
asbag2
(g10
g4
NtRp4861
(dp4862
g13
g14
(g16
S'\r\x00\x00\x00\x00\x00\x00\x00'
tRp4863
sg18
(lp4864
sg20
I31
sg21
(lp4865
I18
aI20
asbag2
(g10
g4
NtRp4866
(dp4867
g13
g14
(g16
S'\x0c\x00\x00\x00\x00\x00\x00\x00'
tRp4868
sg18
(lp4869
sg20
I32
sg21
(lp4870
I18
aI23
aI26
asbag2
(g10
g4
NtRp4871
(dp4872
g13
g14
(g16
S'\x0c\x00\x00\x00\x00\x00\x00\x00'
tRp4873
sg18
(lp4874
sg20
I33
sg21
(lp4875
I14
aI16
aI18
asbag2
(g10
g4
NtRp4876
(dp4877
g13
g14
(g16
S'\x0c\x00\x00\x00\x00\x00\x00\x00'
tRp4878
sg18
(lp4879
sg20
I34
sg21
(lp4880
I17
aI19
aI24
asbag2
(g10
g4
NtRp4881
(dp4882
g13
g14
(g16
S'\x0b\x00\x00\x00\x00\x00\x00\x00'
tRp4883
sg18
(lp4884
sg20
I35
sg21
(lp4885
I24
aI27
asbag2
(g10
g4
NtRp4886
(dp4887
g13
g14
(g16
S'\x0b\x00\x00\x00\x00\x00\x00\x00'
tRp4888
sg18
(lp4889
sg20
I36
sg21
(lp4890
I19
aI20
aI23
asbag2
(g10
g4
NtRp4891
(dp4892
g13
g14
(g16
S'\r\x00\x00\x00\x00\x00\x00\x00'
tRp4893
sg18
(lp4894
sg20
I37
sg21
(lp4895
I21
aI24
asbag2
(g10
g4
NtRp4896
(dp4897
g13
g14
(g16
S'\r\x00\x00\x00\x00\x00\x00\x00'
tRp4898
sg18
(lp4899
sg20
I38
sg21
(lp4900
I20
aI22
aI26
asbag2
(g10
g4
NtRp4901
(dp4902
g13
g14
(g16
S'\r\x00\x00\x00\x00\x00\x00\x00'
tRp4903
sg18
(lp4904
sg20
I39
sg21
(lp4905
I18
aI21
asbag2
(g10
g4
NtRp4906
(dp4907
g13
g14
(g16
S'\r\x00\x00\x00\x00\x00\x00\x00'
tRp4908
sg18
(lp4909
sg20
I40
sg21
(lp4910
I22
asbag2
(g10
g4
NtRp4911
(dp4912
g13
g14
(g16
S'\r\x00\x00\x00\x00\x00\x00\x00'
tRp4913
sg18
(lp4914
sg20
I41
sg21
(lp4915
I16
aI18
aI24
asbag2
(g10
g4
NtRp4916
(dp4917
g13
g14
(g16
S'\x0e\x00\x00\x00\x00\x00\x00\x00'
tRp4918
sg18
(lp4919
sg20
I42
sg21
(lp4920
I20
aI24
asbag2
(g10
g4
NtRp4921
(dp4922
g13
g14
(g16
S'\x0f\x00\x00\x00\x00\x00\x00\x00'
tRp4923
sg18
(lp4924
sg20
I43
sg21
(lp4925
I16
aI18
asbag2
(g10
g4
NtRp4926
(dp4927
g13
g14
(g16
S'\x0e\x00\x00\x00\x00\x00\x00\x00'
tRp4928
sg18
(lp4929
sg20
I44
sg21
(lp4930
I18
aI20
aI23
asbag2
(g10
g4
NtRp4931
(dp4932
g13
g14
(g16
S'\x0c\x00\x00\x00\x00\x00\x00\x00'
tRp4933
sg18
(lp4934
sg20
I45
sg21
(lp4935
I17
asbag2
(g10
g4
NtRp4936
(dp4937
g13
g14
(g16
S'\r\x00\x00\x00\x00\x00\x00\x00'
tRp4938
sg18
(lp4939
sg20
I46
sg21
(lp4940
I21
asbag2
(g10
g4
NtRp4941
(dp4942
g13
g14
(g16
S'\r\x00\x00\x00\x00\x00\x00\x00'
tRp4943
sg18
(lp4944
sg20
I47
sg21
(lp4945
I19
aI21
asbag2
(g10
g4
NtRp4946
(dp4947
g13
g14
(g16
S'\x0c\x00\x00\x00\x00\x00\x00\x00'
tRp4948
sg18
(lp4949
sg20
I48
sg21
(lp4950
I21
ag14
(g16
S'\x13\x00\x00\x00\x00\x00\x00\x00'
tRp4951
asbag2
(g10
g4
NtRp4952
(dp4953
g13
g14
(g16
S'\r\x00\x00\x00\x00\x00\x00\x00'
tRp4954
sg18
(lp4955
sg20
I49
sg21
(lp4956
I27
ag14
(g16
S'\x17\x00\x00\x00\x00\x00\x00\x00'
tRp4957
asbag2
(g10
g4
NtRp4958
(dp4959
g13
g14
(g16
S'\r\x00\x00\x00\x00\x00\x00\x00'
tRp4960
sg18
(lp4961
sg20
I50
sg21
(lp4962
I27
aI28
ag14
(g16
S'\x1a\x00\x00\x00\x00\x00\x00\x00'
tRp4963
asbag2
(g10
g4
NtRp4964
(dp4965
g13
g14
(g16
S'\x0b\x00\x00\x00\x00\x00\x00\x00'
tRp4966
sg18
(lp4967
sg20
I51
sg21
(lp4968
I18
aI21
ag14
(g16
S'\x13\x00\x00\x00\x00\x00\x00\x00'
tRp4969
asbag2
(g10
g4
NtRp4970
(dp4971
g13
g14
(g16
S'\x0b\x00\x00\x00\x00\x00\x00\x00'
tRp4972
sg18
(lp4973
sg20
I52
sg21
(lp4974
I20
aI22
aI23
asbag2
(g10
g4
NtRp4975
(dp4976
g13
g14
(g16
S'\x0c\x00\x00\x00\x00\x00\x00\x00'
tRp4977
sg18
(lp4978
sg20
I53
sg21
(lp4979
I23
aI25
asbag2
(g10
g4
NtRp4980
(dp4981
g13
g14
(g16
S'\x0c\x00\x00\x00\x00\x00\x00\x00'
tRp4982
sg18
(lp4983
sg20
I54
sg21
(lp4984
I19
ag14
(g16
S'\x11\x00\x00\x00\x00\x00\x00\x00'
tRp4985
asbag2
(g10
g4
NtRp4986
(dp4987
g13
g14
(g16
S'\x0f\x00\x00\x00\x00\x00\x00\x00'
tRp4988
sg18
(lp4989
sg20
I55
sg21
(lp4990
I22
ag14
(g16
S'\x13\x00\x00\x00\x00\x00\x00\x00'
tRp4991
asbag2
(g10
g4
NtRp4992
(dp4993
g13
g14
(g16
S'\x10\x00\x00\x00\x00\x00\x00\x00'
tRp4994
sg18
(lp4995
sg20
I56
sg21
(lp4996
I22
ag14
(g16
S'\x12\x00\x00\x00\x00\x00\x00\x00'
tRp4997
asbag2
(g10
g4
NtRp4998
(dp4999
g13
g14
(g16
S'\x10\x00\x00\x00\x00\x00\x00\x00'
tRp5000
sg18
(lp5001
sg20
I57
sg21
(lp5002
I19
aI22
asbag2
(g10
g4
NtRp5003
(dp5004
g13
g14
(g16
S'\r\x00\x00\x00\x00\x00\x00\x00'
tRp5005
sg18
(lp5006
sg20
I58
sg21
(lp5007
I22
ag14
(g16
S'\x15\x00\x00\x00\x00\x00\x00\x00'
tRp5008
asbag2
(g10
g4
NtRp5009
(dp5010
g13
g14
(g16
S'\x0e\x00\x00\x00\x00\x00\x00\x00'
tRp5011
sg18
(lp5012
sg20
I59
sg21
(lp5013
I24
asbag2
(g10
g4
NtRp5014
(dp5015
g13
g14
(g16
S'\x0e\x00\x00\x00\x00\x00\x00\x00'
tRp5016
sg18
(lp5017
sg20
I60
sg21
(lp5018
I23
asbag2
(g10
g4
NtRp5019
(dp5020
g13
g14
(g16
S'\r\x00\x00\x00\x00\x00\x00\x00'
tRp5021
sg18
(lp5022
sg20
I61
sg21
(lp5023
I19
asbag2
(g10
g4
NtRp5024
(dp5025
g13
g14
(g16
S'\r\x00\x00\x00\x00\x00\x00\x00'
tRp5026
sg18
(lp5027
sg20
I62
sg21
(lp5028
I24
asbag2
(g10
g4
NtRp5029
(dp5030
g13
g14
(g16
S'\x0e\x00\x00\x00\x00\x00\x00\x00'
tRp5031
sg18
(lp5032
sg20
I63
sg21
(lp5033
I18
asbag2
(g10
g4
NtRp5034
(dp5035
g13
g14
(g16
S'\r\x00\x00\x00\x00\x00\x00\x00'
tRp5036
sg18
(lp5037
sg20
I64
sg21
(lp5038
I21
asbasg38
I9
sbtp5039
a(S'q'
g2
(g3
g4
NtRp5040
(dp5041
g7
I19
sg8
(lp5042
g2
(g10
g4
NtRp5043
(dp5044
g13
g14
(g16
S'\x10\x00\x00\x00\x00\x00\x00\x00'
tRp5045
sg18
(lp5046
sg20
I9
sg21
(lp5047
I34
aI44
asbag2
(g10
g4
NtRp5048
(dp5049
g13
g14
(g16
S'\x11\x00\x00\x00\x00\x00\x00\x00'
tRp5050
sg18
(lp5051
sg20
I10
sg21
(lp5052
I26
aI31
ag14
(g16
S"'\x00\x00\x00\x00\x00\x00\x00"
tRp5053
asbag2
(g10
g4
NtRp5054
(dp5055
g13
g14
(g16
S'\x12\x00\x00\x00\x00\x00\x00\x00'
tRp5056
sg18
(lp5057
sg20
I11
sg21
(lp5058
I32
aI33
ag14
(g16
S'*\x00\x00\x00\x00\x00\x00\x00'
tRp5059
asbag2
(g10
g4
NtRp5060
(dp5061
g13
g14
(g16
S'\x10\x00\x00\x00\x00\x00\x00\x00'
tRp5062
sg18
(lp5063
sg20
I12
sg21
(lp5064
I28
aI33
ag14
(g16
S'(\x00\x00\x00\x00\x00\x00\x00'
tRp5065
asbag2
(g10
g4
NtRp5066
(dp5067
g13
g14
(g16
S'\x10\x00\x00\x00\x00\x00\x00\x00'
tRp5068
sg18
(lp5069
sg20
I13
sg21
(lp5070
I27
aI28
ag14
(g16
S'#\x00\x00\x00\x00\x00\x00\x00'
tRp5071
asbag2
(g10
g4
NtRp5072
(dp5073
g13
g14
(g16
S'\x10\x00\x00\x00\x00\x00\x00\x00'
tRp5074
sg18
(lp5075
sg20
I14
sg21
(lp5076
I28
aI31
ag14
(g16
S'&\x00\x00\x00\x00\x00\x00\x00'
tRp5077
asbag2
(g10
g4
NtRp5078
(dp5079
g13
g14
(g16
S'\x11\x00\x00\x00\x00\x00\x00\x00'
tRp5080
sg18
(lp5081
sg20
I15
sg21
(lp5082
I19
aI23
asbag2
(g10
g4
NtRp5083
(dp5084
g13
g14
(g16
S'\x11\x00\x00\x00\x00\x00\x00\x00'
tRp5085
sg18
(lp5086
sg20
I16
sg21
(lp5087
I25
aI27
asbag2
(g10
g4
NtRp5088
(dp5089
g13
g14
(g16
S'\x11\x00\x00\x00\x00\x00\x00\x00'
tRp5090
sg18
(lp5091
sg20
I17
sg21
(lp5092
I31
aI32
asbag2
(g10
g4
NtRp5093
(dp5094
g13
g14
(g16
S'\x11\x00\x00\x00\x00\x00\x00\x00'
tRp5095
sg18
(lp5096
sg20
I18
sg21
(lp5097
I27
aI28
asbag2
(g10
g4
NtRp5098
(dp5099
g13
g14
(g16
S'\x10\x00\x00\x00\x00\x00\x00\x00'
tRp5100
sg18
(lp5101
sg20
I19
sg21
(lp5102
I23
aI24
asbasg38
I9
sbtp5103
a(S'q'
g2
(g3
g4
NtRp5104
(dp5105
g7
I12
sg8
(lp5106
g2
(g10
g4
NtRp5107
(dp5108
g13
g14
(g16
S'<\x00\x00\x00\x00\x00\x00\x00'
tRp5109
sg18
(lp5110
sg20
I11
sg21
(lp5111
I110
asbag2
(g10
g4
NtRp5112
(dp5113
g13
g14
(g16
S'9\x00\x00\x00\x00\x00\x00\x00'
tRp5114
sg18
(lp5115
sg20
I12
sg21
(lp5116
I116
asbasg38
I11
sbtp5117
a.