(lp1
(S'a'
I1
tp2
a(S'a'
I15
tp3
a(S'g'
I19
tp4
a(S'a'
I20
tp5
a(S'a'
I21
tp6
a(S'a'
I23
tp7
a(S'a'
I27
tp8
a(S'g'
I28
tp9
a(S'g'
I29
tp10
a(S'a'
I31
tp11
a(S'a'
I33
tp12
a(S'a'
I35
tp13
a(S'g'
I37
tp14
a(S'a'
I40
tp15
a(S'a'
I42
tp16
a(S'a'
I45
tp17
a(S'g'
I46
tp18
a(S'a'
I49
tp19
a(S'g'
I50
tp20
a(S'g'
I51
tp21
a(S'a'
I54
tp22
a(S'g'
I55
tp23
a(S'a'
I56
tp24
a(S'g'
I57
tp25
a(S'r'
I60
tp26
a(S'g'
I62
tp27
a(S'g'
I63
tp28
a(S'g'
I64
tp29
a(S'a'
I65
tp30
a(S'r'
I67
tp31
a(S'g'
I71
tp32
a(S'a'
I72
tp33
a(S'a'
I75
tp34
a(S'a'
I76
tp35
a(S'a'
I78
tp36
a(S'a'
I81
tp37
a(S'a'
I85
tp38
a(S'r'
I86
tp39
a(S'a'
I92
tp40
a(S'g'
I94
tp41
a(S'r'
I98
tp42
a(S'r'
I99
tp43
a(S'a'
I101
tp44
a(S'a'
I102
tp45
a(S'a'
I104
tp46
a(S'a'
I105
tp47
a(S'a'
I106
tp48
a(S'a'
I109
tp49
a.