(lp1
(S'a'
I0
tp2
a(S'a'
I4
tp3
a(S'm'
I7
tp4
a(S'a'
I9
tp5
a(S'a'
I12
tp6
a(S'a'
I16
tp7
a(S'm'
I21
tp8
a(S'm'
I26
tp9
a(S'a'
I27
tp10
a(S'a'
I37
tp11
a(S'a'
I39
tp12
a(S'a'
I48
tp13
a(S'g'
I49
tp14
a(S'r'
I52
tp15
a(S'a'
I53
tp16
a(S'a'
I54
tp17
a(S'r'
I55
tp18
a(S'a'
I58
tp19
a(S'g'
I62
tp20
a(S'r'
I63
tp21
a(S'r'
I65
tp22
a(S'r'
I72
tp23
a(S'a'
I75
tp24
a(S'm'
I76
tp25
a(S'a'
I88
tp26
a(S'a'
I89
tp27
a(S'r'
I94
tp28
a(S'a'
I98
tp29
a(S'a'
I100
tp30
a(S'a'
I101
tp31
a(S'a'
I104
tp32
a(S'g'
I105
tp33
a(S'r'
I106
tp34
a(S'a'
I108
tp35
a.