(lp1
(S'a'
I5
tp2
a(S'a'
I8
tp3
a(S'r'
I10
tp4
a(S'a'
I14
tp5
a(S'a'
I16
tp6
a(S'm'
I17
tp7
a(S'a'
I19
tp8
a(S'r'
I20
tp9
a(S'r'
I24
tp10
a(S'a'
I26
tp11
a(S'm'
I28
tp12
a(S'r'
I33
tp13
a(S'm'
I47
tp14
a(S'r'
I49
tp15
a(S'a'
I54
tp16
a(S'r'
I55
tp17
a(S'g'
I64
tp18
a(S'a'
I80
tp19
a(S'm'
I85
tp20
a(S'a'
I88
tp21
a(S'r'
I93
tp22
a(S'r'
I94
tp23
a(S'm'
I104
tp24
a(S'r'
I105
tp25
a(S'a'
I107
tp26
a.