(lp1
(S'r'
I2
tp2
a(S'g'
I8
tp3
a(S'r'
I9
tp4
a(S'a'
I13
tp5
a(S'm'
I19
tp6
a(S'r'
I23
tp7
a(S'a'
I29
tp8
a(S'g'
I30
tp9
a(S'm'
I31
tp10
a(S'r'
I33
tp11
a(S'r'
I35
tp12
a(S'r'
I36
tp13
a(S'r'
I37
tp14
a(S'm'
I38
tp15
a(S'r'
I40
tp16
a(S'a'
I46
tp17
a(S'r'
I49
tp18
a(S'm'
I50
tp19
a(S'r'
I54
tp20
a(S'a'
I57
tp21
a(S'r'
I58
tp22
a(S'm'
I61
tp23
a(S'm'
I62
tp24
a(S'r'
I68
tp25
a(S'r'
I69
tp26
a(S'm'
I70
tp27
a(S'r'
I72
tp28
a(S'a'
I76
tp29
a(S'm'
I81
tp30
a(S'r'
I83
tp31
a(S'r'
I86
tp32
a(S'r'
I95
tp33
a(S'm'
I99
tp34
a(S'r'
I103
tp35
a(S'm'
I104
tp36
a(S'a'
I107
tp37
a(S'a'
I110
tp38
a(S'r'
I112
tp39
a.