(lp1
(S'a'
I0
tp2
a(S'g'
I2
tp3
a(S'g'
I5
tp4
a(S'g'
I9
tp5
a(S'a'
I11
tp6
a(S'a'
I12
tp7
a(S'r'
I15
tp8
a(S'a'
I17
tp9
a(S'g'
I18
tp10
a(S'a'
I19
tp11
a(S'a'
I20
tp12
a(S'a'
I21
tp13
a(S'a'
I25
tp14
a(S'a'
I26
tp15
a(S'a'
I30
tp16
a(S'a'
I32
tp17
a(S'a'
I34
tp18
a(S'a'
I39
tp19
a(S'r'
I44
tp20
a(S'a'
I45
tp21
a(S'r'
I49
tp22
a(S'a'
I53
tp23
a(S'a'
I58
tp24
a(S'a'
I59
tp25
a(S'a'
I60
tp26
a(S'a'
I63
tp27
a(S'a'
I64
tp28
a(S'a'
I65
tp29
a(S'g'
I66
tp30
a(S'g'
I67
tp31
a(S'a'
I69
tp32
a(S'a'
I70
tp33
a(S'a'
I73
tp34
a(S'a'
I78
tp35
a(S'a'
I85
tp36
a(S'g'
I91
tp37
a(S'a'
I92
tp38
a(S'a'
I93
tp39
a(S'r'
I96
tp40
a(S'a'
I101
tp41
a(S'g'
I110
tp42
a.