(lp1
(S'm'
ccopy_reg
_reconstructor
p2
(cdahlia_backend
Trajectory
p3
c__builtin__
object
p4
NtRp5
(dp6
S'end'
p7
I19
sS'cells'
p8
(lp9
g2
(cdahlia_backend
Cell
p10
g4
NtRp11
(dp12
S'body'
p13
cnumpy.core.multiarray
scalar
p14
(cnumpy
dtype
p15
(S'i8'
I0
I1
tRp16
(I3
S'<'
NNNI-1
I-1
I0
tbS'\x03\x00\x00\x00\x00\x00\x00\x00'
tRp17
sS'trajectories'
p18
(lp19
sS'frame_number'
p20
I0
sS'arms'
p21
(lp22
I5
aI9
aI17
asbag2
(g10
g4
NtRp23
(dp24
g13
g14
(g16
S'\x03\x00\x00\x00\x00\x00\x00\x00'
tRp25
sg18
(lp26
sg20
I1
sg21
(lp27
I3
aI8
aI9
asbag2
(g10
g4
NtRp28
(dp29
g13
g14
(g16
S'\x03\x00\x00\x00\x00\x00\x00\x00'
tRp30
sg18
(lp31
sg20
I2
sg21
(lp32
I2
aI10
asbag2
(g10
g4
NtRp33
(dp34
g13
g14
(g16
S'\x03\x00\x00\x00\x00\x00\x00\x00'
tRp35
sg18
(lp36
sg20
I3
sg21
(lp37
I5
aI8
asbag2
(g10
g4
NtRp38
(dp39
g13
g14
(g16
S'\x02\x00\x00\x00\x00\x00\x00\x00'
tRp40
sg18
(lp41
sg20
I4
sg21
(lp42
I2
aI9
asbag2
(g10
g4
NtRp43
(dp44
g13
g14
(g16
S'\x02\x00\x00\x00\x00\x00\x00\x00'
tRp45
sg18
(lp46
sg20
I5
sg21
(lp47
I4
aI7
asbag2
(g10
g4
NtRp48
(dp49
g13
g14
(g16
S'\x01\x00\x00\x00\x00\x00\x00\x00'
tRp50
sg18
(lp51
sg20
I6
sg21
(lp52
I4
aI6
asbag2
(g10
g4
NtRp53
(dp54
g13
g14
(g16
S'\x01\x00\x00\x00\x00\x00\x00\x00'
tRp55
sg18
(lp56
sg20
I7
sg21
(lp57
I3
asbag2
(g10
g4
NtRp58
(dp59
g13
g14
(g16
S'\x01\x00\x00\x00\x00\x00\x00\x00'
tRp60
sg18
(lp61
sg20
I8
sg21
(lp62
I2
asbag2
(g10
g4
NtRp63
(dp64
g13
g14
(g16
S'\x00\x00\x00\x00\x00\x00\x00\x00'
tRp65
sg18
(lp66
sg20
I9
sg21
(lp67
I2
aI3
asbag2
(g10
g4
NtRp68
(dp69
g13
g14
(g16
S'\x01\x00\x00\x00\x00\x00\x00\x00'
tRp70
sg18
(lp71
sg20
I10
sg21
(lp72
I4
aI5
asbag2
(g10
g4
NtRp73
(dp74
g13
g14
(g16
S'\x01\x00\x00\x00\x00\x00\x00\x00'
tRp75
sg18
(lp76
sg20
I11
sg21
(lp77
I4
aI5
asbag2
(g10
g4
NtRp78
(dp79
g13
g14
(g16
S'\x01\x00\x00\x00\x00\x00\x00\x00'
tRp80
sg18
(lp81
sg20
I12
sg21
(lp82
I6
asbag2
(g10
g4
NtRp83
(dp84
g13
g14
(g16
S'\x01\x00\x00\x00\x00\x00\x00\x00'
tRp85
sg18
(lp86
sg20
I13
sg21
(lp87
I2
asbag2
(g10
g4
NtRp88
(dp89
g13
g14
(g16
S'\x01\x00\x00\x00\x00\x00\x00\x00'
tRp90
sg18
(lp91
sg20
I14
sg21
(lp92
sbag2
(g10
g4
NtRp93
(dp94
g13
g14
(g16
S'\x01\x00\x00\x00\x00\x00\x00\x00'
tRp95
sg18
(lp96
sg20
I15
sg21
(lp97
I2
asbag2
(g10
g4
NtRp98
(dp99
g13
g14
(g16
S'\x01\x00\x00\x00\x00\x00\x00\x00'
tRp100
sg18
(lp101
sg20
I16
sg21
(lp102
sbag2
(g10
g4
NtRp103
(dp104
g13
g14
(g16
S'\x01\x00\x00\x00\x00\x00\x00\x00'
tRp105
sg18
(lp106
sg20
I17
sg21
(lp107
sbag2
(g10
g4
NtRp108
(dp109
g13
g14
(g16
S'\x01\x00\x00\x00\x00\x00\x00\x00'
tRp110
sg18
(lp111
sg20
I18
sg21
(lp112
sbag2
(g10
g4
NtRp113
(dp114
g13
g14
(g16
S'\x01\x00\x00\x00\x00\x00\x00\x00'
tRp115
sg18
(lp116
sg20
I19
sg21
(lp117
I2
aI7
asbasS'beginning'
p118
I0
sbtp119
a(S'm'
g2
(g3
g4
NtRp120
(dp121
g7
I100
sg8
(lp122
g2
(g10
g4
NtRp123
(dp124
g13
g14
(g16
S'\x08\x00\x00\x00\x00\x00\x00\x00'
tRp125
sg18
(lp126
sg20
I0
sg21
(lp127
I15
asbag2
(g10
g4
NtRp128
(dp129
g13
g14
(g16
S'\x06\x00\x00\x00\x00\x00\x00\x00'
tRp130
sg18
(lp131
sg20
I1
sg21
(lp132
I7
asbag2
(g10
g4
NtRp133
(dp134
g13
g14
(g16
S'\x06\x00\x00\x00\x00\x00\x00\x00'
tRp135
sg18
(lp136
sg20
I2
sg21
(lp137
I7
aI22
asbag2
(g10
g4
NtRp138
(dp139
g13
g14
(g16
S'\x05\x00\x00\x00\x00\x00\x00\x00'
tRp140
sg18
(lp141
sg20
I3
sg21
(lp142
I7
asbag2
(g10
g4
NtRp143
(dp144
g13
g14
(g16
S'\x05\x00\x00\x00\x00\x00\x00\x00'
tRp145
sg18
(lp146
sg20
I4
sg21
(lp147
I11
aI23
aI36
asbag2
(g10
g4
NtRp148
(dp149
g13
g14
(g16
S'\x04\x00\x00\x00\x00\x00\x00\x00'
tRp150
sg18
(lp151
sg20
I5
sg21
(lp152
I14
asbag2
(g10
g4
NtRp153
(dp154
g13
g14
(g16
S'\x03\x00\x00\x00\x00\x00\x00\x00'
tRp155
sg18
(lp156
sg20
I6
sg21
(lp157
I13
asbag2
(g10
g4
NtRp158
(dp159
g13
g14
(g16
S'\x04\x00\x00\x00\x00\x00\x00\x00'
tRp160
sg18
(lp161
sg20
I7
sg21
(lp162
sbag2
(g10
g4
NtRp163
(dp164
g13
g14
(g16
S'\x04\x00\x00\x00\x00\x00\x00\x00'
tRp165
sg18
(lp166
sg20
I8
sg21
(lp167
sbag2
(g10
g4
NtRp168
(dp169
g13
g14
(g16
S'\x03\x00\x00\x00\x00\x00\x00\x00'
tRp170
sg18
(lp171
sg20
I9
sg21
(lp172
sbag2
(g10
g4
NtRp173
(dp174
g13
g14
(g16
S'\x04\x00\x00\x00\x00\x00\x00\x00'
tRp175
sg18
(lp176
sg20
I10
sg21
(lp177
I7
aI12
asbag2
(g10
g4
NtRp178
(dp179
g13
g14
(g16
S'\x03\x00\x00\x00\x00\x00\x00\x00'
tRp180
sg18
(lp181
sg20
I11
sg21
(lp182
I8
asbag2
(g10
g4
NtRp183
(dp184
g13
g14
(g16
S'\x03\x00\x00\x00\x00\x00\x00\x00'
tRp185
sg18
(lp186
sg20
I12
sg21
(lp187
I11
asbag2
(g10
g4
NtRp188
(dp189
g13
g14
(g16
S'\x03\x00\x00\x00\x00\x00\x00\x00'
tRp190
sg18
(lp191
sg20
I13
sg21
(lp192
I9
aI18
aI27
asbag2
(g10
g4
NtRp193
(dp194
g13
g14
(g16
S'\x03\x00\x00\x00\x00\x00\x00\x00'
tRp195
sg18
(lp196
sg20
I14
sg21
(lp197
I4
aI10
asbag2
(g10
g4
NtRp198
(dp199
g13
g14
(g16
S'\x03\x00\x00\x00\x00\x00\x00\x00'
tRp200
sg18
(lp201
sg20
I15
sg21
(lp202
I9
aI20
asbag2
(g10
g4
NtRp203
(dp204
g13
g14
(g16
S'\x03\x00\x00\x00\x00\x00\x00\x00'
tRp205
sg18
(lp206
sg20
I16
sg21
(lp207
I8
aI13
aI17
asbag2
(g10
g4
NtRp208
(dp209
g13
g14
(g16
S'\x04\x00\x00\x00\x00\x00\x00\x00'
tRp210
sg18
(lp211
sg20
I17
sg21
(lp212
I18
aI26
asbag2
(g10
g4
NtRp213
(dp214
g13
g14
(g16
S'\x04\x00\x00\x00\x00\x00\x00\x00'
tRp215
sg18
(lp216
sg20
I18
sg21
(lp217
I7
aI13
aI23
asbag2
(g10
g4
NtRp218
(dp219
g13
g14
(g16
S'\x03\x00\x00\x00\x00\x00\x00\x00'
tRp220
sg18
(lp221
sg20
I19
sg21
(lp222
I8
aI23
aI28
ag14
(g16
S'\x0e\x00\x00\x00\x00\x00\x00\x00'
tRp223
asbag2
(g10
g4
NtRp224
(dp225
g13
g14
(g16
S'\x03\x00\x00\x00\x00\x00\x00\x00'
tRp226
sg18
(lp227
sg20
I20
sg21
(lp228
I6
aI8
aI13
aI18
aI20
asbag2
(g10
g4
NtRp229
(dp230
g13
g14
(g16
S'\x04\x00\x00\x00\x00\x00\x00\x00'
tRp231
sg18
(lp232
sg20
I21
sg21
(lp233
I4
aI24
ag14
(g16
S'\x0c\x00\x00\x00\x00\x00\x00\x00'
tRp234
asbag2
(g10
g4
NtRp235
(dp236
g13
g14
(g16
S'\x04\x00\x00\x00\x00\x00\x00\x00'
tRp237
sg18
(lp238
sg20
I22
sg21
(lp239
I2
aI15
aI19
aI20
asbag2
(g10
g4
NtRp240
(dp241
g13
g14
(g16
S'\x05\x00\x00\x00\x00\x00\x00\x00'
tRp242
sg18
(lp243
sg20
I23
sg21
(lp244
I2
aI18
ag14
(g16
S'\x0c\x00\x00\x00\x00\x00\x00\x00'
tRp245
asbag2
(g10
g4
NtRp246
(dp247
g13
g14
(g16
S'\x03\x00\x00\x00\x00\x00\x00\x00'
tRp248
sg18
(lp249
sg20
I24
sg21
(lp250
I2
ag14
(g16
S'\n\x00\x00\x00\x00\x00\x00\x00'
tRp251
asbag2
(g10
g4
NtRp252
(dp253
g13
g14
(g16
S'\x05\x00\x00\x00\x00\x00\x00\x00'
tRp254
sg18
(lp255
sg20
I25
sg21
(lp256
I6
aI16
ag14
(g16
S'\x0e\x00\x00\x00\x00\x00\x00\x00'
tRp257
asbag2
(g10
g4
NtRp258
(dp259
g13
g14
(g16
S'\x03\x00\x00\x00\x00\x00\x00\x00'
tRp260
sg18
(lp261
sg20
I26
sg21
(lp262
I4
aI9
aI18
ag14
(g16
S'\x10\x00\x00\x00\x00\x00\x00\x00'
tRp263
asbag2
(g10
g4
NtRp264
(dp265
g13
g14
(g16
S'\x04\x00\x00\x00\x00\x00\x00\x00'
tRp266
sg18
(lp267
sg20
I27
sg21
(lp268
I2
aI15
aI18
ag14
(g16
S'\x0e\x00\x00\x00\x00\x00\x00\x00'
tRp269
asbag2
(g10
g4
NtRp270
(dp271
g13
g14
(g16
S'\x04\x00\x00\x00\x00\x00\x00\x00'
tRp272
sg18
(lp273
sg20
I28
sg21
(lp274
I1
aI14
aI18
aI20
asbag2
(g10
g4
NtRp275
(dp276
g13
g14
(g16
S'\x03\x00\x00\x00\x00\x00\x00\x00'
tRp277
sg18
(lp278
sg20
I29
sg21
(lp279
I4
aI21
ag14
(g16
S'\x11\x00\x00\x00\x00\x00\x00\x00'
tRp280
asbag2
(g10
g4
NtRp281
(dp282
g13
g14
(g16
S'\x03\x00\x00\x00\x00\x00\x00\x00'
tRp283
sg18
(lp284
sg20
I30
sg21
(lp285
I5
aI15
aI19
aI20
asbag2
(g10
g4
NtRp286
(dp287
g13
g14
(g16
S'\x03\x00\x00\x00\x00\x00\x00\x00'
tRp288
sg18
(lp289
sg20
I31
sg21
(lp290
I6
aI19
aI22
asbag2
(g10
g4
NtRp291
(dp292
g13
g14
(g16
S'\x03\x00\x00\x00\x00\x00\x00\x00'
tRp293
sg18
(lp294
sg20
I32
sg21
(lp295
I5
aI15
aI18
aI19
asbag2
(g10
g4
NtRp296
(dp297
g13
g14
(g16
S'\x03\x00\x00\x00\x00\x00\x00\x00'
tRp298
sg18
(lp299
sg20
I33
sg21
(lp300
I4
aI15
aI18
asbag2
(g10
g4
NtRp301
(dp302
g13
g14
(g16
S'\x04\x00\x00\x00\x00\x00\x00\x00'
tRp303
sg18
(lp304
sg20
I34
sg21
(lp305
I4
aI7
aI13
aI16
asbag2
(g10
g4
NtRp306
(dp307
g13
g14
(g16
S'\x04\x00\x00\x00\x00\x00\x00\x00'
tRp308
sg18
(lp309
sg20
I35
sg21
(lp310
I6
aI11
aI13
aI16
aI19
aI20
asbag2
(g10
g4
NtRp311
(dp312
g13
g14
(g16
S'\x04\x00\x00\x00\x00\x00\x00\x00'
tRp313
sg18
(lp314
sg20
I36
sg21
(lp315
I6
aI7
aI10
aI15
aI16
asbag2
(g10
g4
NtRp316
(dp317
g13
g14
(g16
S'\x04\x00\x00\x00\x00\x00\x00\x00'
tRp318
sg18
(lp319
sg20
I37
sg21
(lp320
I5
aI7
aI12
aI16
asbag2
(g10
g4
NtRp321
(dp322
g13
g14
(g16
S'\x05\x00\x00\x00\x00\x00\x00\x00'
tRp323
sg18
(lp324
sg20
I38
sg21
(lp325
I6
aI8
aI17
aI18
aI21
ag14
(g16
S'\x07\x00\x00\x00\x00\x00\x00\x00'
tRp326
asbag2
(g10
g4
NtRp327
(dp328
g13
g14
(g16
S'\x05\x00\x00\x00\x00\x00\x00\x00'
tRp329
sg18
(lp330
sg20
I39
sg21
(lp331
I5
aI13
ag14
(g16
S'\x08\x00\x00\x00\x00\x00\x00\x00'
tRp332
asbag2
(g10
g4
NtRp333
(dp334
g13
g14
(g16
S'\x04\x00\x00\x00\x00\x00\x00\x00'
tRp335
sg18
(lp336
sg20
I40
sg21
(lp337
I6
aI10
aI16
ag14
(g16
S'\x07\x00\x00\x00\x00\x00\x00\x00'
tRp338
asbag2
(g10
g4
NtRp339
(dp340
g13
g14
(g16
S'\x05\x00\x00\x00\x00\x00\x00\x00'
tRp341
sg18
(lp342
sg20
I41
sg21
(lp343
I6
aI8
aI12
aI15
asbag2
(g10
g4
NtRp344
(dp345
g13
g14
(g16
S'\x04\x00\x00\x00\x00\x00\x00\x00'
tRp346
sg18
(lp347
sg20
I42
sg21
(lp348
I6
aI9
aI12
asbag2
(g10
g4
NtRp349
(dp350
g13
g14
(g16
S'\x04\x00\x00\x00\x00\x00\x00\x00'
tRp351
sg18
(lp352
sg20
I43
sg21
(lp353
I8
aI12
ag14
(g16
S'\x10\x00\x00\x00\x00\x00\x00\x00'
tRp354
asbag2
(g10
g4
NtRp355
(dp356
g13
g14
(g16
S'\x03\x00\x00\x00\x00\x00\x00\x00'
tRp357
sg18
(lp358
sg20
I44
sg21
(lp359
I6
aI9
aI16
aI17
asbag2
(g10
g4
NtRp360
(dp361
g13
g14
(g16
S'\x03\x00\x00\x00\x00\x00\x00\x00'
tRp362
sg18
(lp363
sg20
I45
sg21
(lp364
I5
aI6
ag14
(g16
S'\n\x00\x00\x00\x00\x00\x00\x00'
tRp365
ag14
(g16
S'\x08\x00\x00\x00\x00\x00\x00\x00'
tRp366
asbag2
(g10
g4
NtRp367
(dp368
g13
g14
(g16
S'\x04\x00\x00\x00\x00\x00\x00\x00'
tRp369
sg18
(lp370
sg20
I46
sg21
(lp371
I6
aI7
aI13
aI14
asbag2
(g10
g4
NtRp372
(dp373
g13
g14
(g16
S'\x04\x00\x00\x00\x00\x00\x00\x00'
tRp374
sg18
(lp375
sg20
I47
sg21
(lp376
I7
aI11
aI14
aI15
asbag2
(g10
g4
NtRp377
(dp378
g13
g14
(g16
S'\x04\x00\x00\x00\x00\x00\x00\x00'
tRp379
sg18
(lp380
sg20
I48
sg21
(lp381
I7
aI8
aI13
aI15
aI16
asbag2
(g10
g4
NtRp382
(dp383
g13
g14
(g16
S'\x04\x00\x00\x00\x00\x00\x00\x00'
tRp384
sg18
(lp385
sg20
I49
sg21
(lp386
I5
aI7
aI12
ag14
(g16
S'\r\x00\x00\x00\x00\x00\x00\x00'
tRp387
asbag2
(g10
g4
NtRp388
(dp389
g13
g14
(g16
S'\x04\x00\x00\x00\x00\x00\x00\x00'
tRp390
sg18
(lp391
sg20
I50
sg21
(lp392
I5
aI7
aI11
aI12
asbag2
(g10
g4
NtRp393
(dp394
g13
g14
(g16
S'\x04\x00\x00\x00\x00\x00\x00\x00'
tRp395
sg18
(lp396
sg20
I51
sg21
(lp397
I5
aI6
ag14
(g16
S'\n\x00\x00\x00\x00\x00\x00\x00'
tRp398
asbag2
(g10
g4
NtRp399
(dp400
g13
g14
(g16
S'\x04\x00\x00\x00\x00\x00\x00\x00'
tRp401
sg18
(lp402
sg20
I52
sg21
(lp403
I7
aI12
asbag2
(g10
g4
NtRp404
(dp405
g13
g14
(g16
S'\x04\x00\x00\x00\x00\x00\x00\x00'
tRp406
sg18
(lp407
sg20
I53
sg21
(lp408
I6
aI9
aI15
asbag2
(g10
g4
NtRp409
(dp410
g13
g14
(g16
S'\x04\x00\x00\x00\x00\x00\x00\x00'
tRp411
sg18
(lp412
sg20
I54
sg21
(lp413
I7
ag14
(g16
S'\n\x00\x00\x00\x00\x00\x00\x00'
tRp414
asbag2
(g10
g4
NtRp415
(dp416
g13
g14
(g16
S'\x04\x00\x00\x00\x00\x00\x00\x00'
tRp417
sg18
(lp418
sg20
I55
sg21
(lp419
I6
aI8
aI12
asbag2
(g10
g4
NtRp420
(dp421
g13
g14
(g16
S'\x04\x00\x00\x00\x00\x00\x00\x00'
tRp422
sg18
(lp423
sg20
I56
sg21
(lp424
I7
aI9
aI10
aI11
aI16
asbag2
(g10
g4
NtRp425
(dp426
g13
g14
(g16
S'\x04\x00\x00\x00\x00\x00\x00\x00'
tRp427
sg18
(lp428
sg20
I57
sg21
(lp429
I8
aI9
aI10
aI15
aI16
asbag2
(g10
g4
NtRp430
(dp431
g13
g14
(g16
S'\x04\x00\x00\x00\x00\x00\x00\x00'
tRp432
sg18
(lp433
sg20
I58
sg21
(lp434
I6
aI7
aI8
aI10
asbag2
(g10
g4
NtRp435
(dp436
g13
g14
(g16
S'\x04\x00\x00\x00\x00\x00\x00\x00'
tRp437
sg18
(lp438
sg20
I59
sg21
(lp439
I5
aI7
aI9
aI14
asbag2
(g10
g4
NtRp440
(dp441
g13
g14
(g16
S'\x04\x00\x00\x00\x00\x00\x00\x00'
tRp442
sg18
(lp443
sg20
I60
sg21
(lp444
I5
aI8
aI12
aI13
asbag2
(g10
g4
NtRp445
(dp446
g13
g14
(g16
S'\x05\x00\x00\x00\x00\x00\x00\x00'
tRp447
sg18
(lp448
sg20
I61
sg21
(lp449
I9
aI11
aI15
aI16
asbag2
(g10
g4
NtRp450
(dp451
g13
g14
(g16
S'\x04\x00\x00\x00\x00\x00\x00\x00'
tRp452
sg18
(lp453
sg20
I62
sg21
(lp454
I6
aI8
aI10
asbag2
(g10
g4
NtRp455
(dp456
g13
g14
(g16
S'\x04\x00\x00\x00\x00\x00\x00\x00'
tRp457
sg18
(lp458
sg20
I63
sg21
(lp459
I6
aI8
aI13
aI14
asbag2
(g10
g4
NtRp460
(dp461
g13
g14
(g16
S'\x05\x00\x00\x00\x00\x00\x00\x00'
tRp462
sg18
(lp463
sg20
I64
sg21
(lp464
I3
aI8
aI12
asbag2
(g10
g4
NtRp465
(dp466
g13
g14
(g16
S'\x04\x00\x00\x00\x00\x00\x00\x00'
tRp467
sg18
(lp468
sg20
I65
sg21
(lp469
I7
aI8
aI12
aI13
asbag2
(g10
g4
NtRp470
(dp471
g13
g14
(g16
S'\x04\x00\x00\x00\x00\x00\x00\x00'
tRp472
sg18
(lp473
sg20
I66
sg21
(lp474
I10
ag14
(g16
S'\x0b\x00\x00\x00\x00\x00\x00\x00'
tRp475
asbag2
(g10
g4
NtRp476
(dp477
g13
g14
(g16
S'\x03\x00\x00\x00\x00\x00\x00\x00'
tRp478
sg18
(lp479
sg20
I67
sg21
(lp480
I6
aI7
aI9
aI11
asbag2
(g10
g4
NtRp481
(dp482
g13
g14
(g16
S'\x03\x00\x00\x00\x00\x00\x00\x00'
tRp483
sg18
(lp484
sg20
I68
sg21
(lp485
I6
aI8
aI14
asbag2
(g10
g4
NtRp486
(dp487
g13
g14
(g16
S'\x03\x00\x00\x00\x00\x00\x00\x00'
tRp488
sg18
(lp489
sg20
I69
sg21
(lp490
I7
aI9
aI11
aI13
aI14
asbag2
(g10
g4
NtRp491
(dp492
g13
g14
(g16
S'\x04\x00\x00\x00\x00\x00\x00\x00'
tRp493
sg18
(lp494
sg20
I70
sg21
(lp495
I6
aI9
ag14
(g16
S'\n\x00\x00\x00\x00\x00\x00\x00'
tRp496
asbag2
(g10
g4
NtRp497
(dp498
g13
g14
(g16
S'\x03\x00\x00\x00\x00\x00\x00\x00'
tRp499
sg18
(lp500
sg20
I71
sg21
(lp501
I6
aI7
aI11
aI12
asbag2
(g10
g4
NtRp502
(dp503
g13
g14
(g16
S'\x03\x00\x00\x00\x00\x00\x00\x00'
tRp504
sg18
(lp505
sg20
I72
sg21
(lp506
I3
aI4
aI7
aI8
aI11
asbag2
(g10
g4
NtRp507
(dp508
g13
g14
(g16
S'\x03\x00\x00\x00\x00\x00\x00\x00'
tRp509
sg18
(lp510
sg20
I73
sg21
(lp511
I5
aI7
aI9
aI11
aI14
asbag2
(g10
g4
NtRp512
(dp513
g13
g14
(g16
S'\x03\x00\x00\x00\x00\x00\x00\x00'
tRp514
sg18
(lp515
sg20
I74
sg21
(lp516
I4
aI6
aI7
aI8
aI11
asbag2
(g10
g4
NtRp517
(dp518
g13
g14
(g16
S'\x03\x00\x00\x00\x00\x00\x00\x00'
tRp519
sg18
(lp520
sg20
I75
sg21
(lp521
I4
aI6
aI7
aI9
aI14
asbag2
(g10
g4
NtRp522
(dp523
g13
g14
(g16
S'\x03\x00\x00\x00\x00\x00\x00\x00'
tRp524
sg18
(lp525
sg20
I76
sg21
(lp526
I6
aI7
aI8
asbag2
(g10
g4
NtRp527
(dp528
g13
g14
(g16
S'\x03\x00\x00\x00\x00\x00\x00\x00'
tRp529
sg18
(lp530
sg20
I77
sg21
(lp531
I3
aI4
aI5
aI7
asbag2
(g10
g4
NtRp532
(dp533
g13
g14
(g16
S'\x03\x00\x00\x00\x00\x00\x00\x00'
tRp534
sg18
(lp535
sg20
I78
sg21
(lp536
I3
aI5
aI7
aI9
asbag2
(g10
g4
NtRp537
(dp538
g13
g14
(g16
S'\x04\x00\x00\x00\x00\x00\x00\x00'
tRp539
sg18
(lp540
sg20
I79
sg21
(lp541
I6
aI8
aI9
aI10
aI12
asbag2
(g10
g4
NtRp542
(dp543
g13
g14
(g16
S'\x03\x00\x00\x00\x00\x00\x00\x00'
tRp544
sg18
(lp545
sg20
I80
sg21
(lp546
I6
aI10
aI11
asbag2
(g10
g4
NtRp547
(dp548
g13
g14
(g16
S'\x02\x00\x00\x00\x00\x00\x00\x00'
tRp549
sg18
(lp550
sg20
I81
sg21
(lp551
I5
aI8
aI9
ag14
(g16
S'\x0b\x00\x00\x00\x00\x00\x00\x00'
tRp552
asbag2
(g10
g4
NtRp553
(dp554
g13
g14
(g16
S'\x02\x00\x00\x00\x00\x00\x00\x00'
tRp555
sg18
(lp556
sg20
I82
sg21
(lp557
I5
aI8
aI9
aI10
aI14
asbag2
(g10
g4
NtRp558
(dp559
g13
g14
(g16
S'\x02\x00\x00\x00\x00\x00\x00\x00'
tRp560
sg18
(lp561
sg20
I83
sg21
(lp562
I4
aI7
aI8
aI9
asbag2
(g10
g4
NtRp563
(dp564
g13
g14
(g16
S'\x03\x00\x00\x00\x00\x00\x00\x00'
tRp565
sg18
(lp566
sg20
I84
sg21
(lp567
I6
aI7
aI8
asbag2
(g10
g4
NtRp568
(dp569
g13
g14
(g16
S'\x02\x00\x00\x00\x00\x00\x00\x00'
tRp570
sg18
(lp571
sg20
I85
sg21
(lp572
I6
aI10
aI11
asbag2
(g10
g4
NtRp573
(dp574
g13
g14
(g16
S'\x02\x00\x00\x00\x00\x00\x00\x00'
tRp575
sg18
(lp576
sg20
I86
sg21
(lp577
I5
aI6
asbag2
(g10
g4
NtRp578
(dp579
g13
g14
(g16
S'\x02\x00\x00\x00\x00\x00\x00\x00'
tRp580
sg18
(lp581
sg20
I87
sg21
(lp582
I7
aI8
asbag2
(g10
g4
NtRp583
(dp584
g13
g14
(g16
S'\x03\x00\x00\x00\x00\x00\x00\x00'
tRp585
sg18
(lp586
sg20
I88
sg21
(lp587
I5
aI6
aI7
aI11
asbag2
(g10
g4
NtRp588
(dp589
g13
g14
(g16
S'\x03\x00\x00\x00\x00\x00\x00\x00'
tRp590
sg18
(lp591
sg20
I89
sg21
(lp592
I7
aI8
aI9
asbag2
(g10
g4
NtRp593
(dp594
g13
g14
(g16
S'\x02\x00\x00\x00\x00\x00\x00\x00'
tRp595
sg18
(lp596
sg20
I90
sg21
(lp597
I7
aI8
aI9
asbag2
(g10
g4
NtRp598
(dp599
g13
g14
(g16
S'\x03\x00\x00\x00\x00\x00\x00\x00'
tRp600
sg18
(lp601
sg20
I91
sg21
(lp602
I8
aI9
asbag2
(g10
g4
NtRp603
(dp604
g13
g14
(g16
S'\x03\x00\x00\x00\x00\x00\x00\x00'
tRp605
sg18
(lp606
sg20
I92
sg21
(lp607
I4
aI5
aI7
asbag2
(g10
g4
NtRp608
(dp609
g13
g14
(g16
S'\x02\x00\x00\x00\x00\x00\x00\x00'
tRp610
sg18
(lp611
sg20
I93
sg21
(lp612
I5
aI6
ag14
(g16
S'\t\x00\x00\x00\x00\x00\x00\x00'
tRp613
asbag2
(g10
g4
NtRp614
(dp615
g13
g14
(g16
S'\x02\x00\x00\x00\x00\x00\x00\x00'
tRp616
sg18
(lp617
sg20
I94
sg21
(lp618
I5
aI6
ag14
(g16
S'\x08\x00\x00\x00\x00\x00\x00\x00'
tRp619
asbag2
(g10
g4
NtRp620
(dp621
g13
g14
(g16
S'\x02\x00\x00\x00\x00\x00\x00\x00'
tRp622
sg18
(lp623
sg20
I95
sg21
(lp624
I5
aI7
aI8
aI12
asbag2
(g10
g4
NtRp625
(dp626
g13
g14
(g16
S'\x02\x00\x00\x00\x00\x00\x00\x00'
tRp627
sg18
(lp628
sg20
I96
sg21
(lp629
I5
aI6
aI7
asbag2
(g10
g4
NtRp630
(dp631
g13
g14
(g16
S'\x02\x00\x00\x00\x00\x00\x00\x00'
tRp632
sg18
(lp633
sg20
I97
sg21
(lp634
I5
aI6
asbag2
(g10
g4
NtRp635
(dp636
g13
g14
(g16
S'\x02\x00\x00\x00\x00\x00\x00\x00'
tRp637
sg18
(lp638
sg20
I98
sg21
(lp639
I7
aI9
asbag2
(g10
g4
NtRp640
(dp641
g13
g14
(g16
S'\x02\x00\x00\x00\x00\x00\x00\x00'
tRp642
sg18
(lp643
sg20
I99
sg21
(lp644
I5
aI6
aI7
asbag2
(g10
g4
NtRp645
(dp646
g13
g14
(g16
S'\x02\x00\x00\x00\x00\x00\x00\x00'
tRp647
sg18
(lp648
sg20
I100
sg21
(lp649
I5
aI7
aI9
aI13
asbasg118
I0
sbtp650
a(S'r'
g2
(g3
g4
NtRp651
(dp652
g7
I36
sg8
(lp653
g2
(g10
g4
NtRp654
(dp655
g13
g14
(g16
S'\x11\x00\x00\x00\x00\x00\x00\x00'
tRp656
sg18
(lp657
sg20
I0
sg21
(lp658
I58
asbag2
(g10
g4
NtRp659
(dp660
g13
g14
(g16
S'\x10\x00\x00\x00\x00\x00\x00\x00'
tRp661
sg18
(lp662
sg20
I1
sg21
(lp663
sbag2
(g10
g4
NtRp664
(dp665
g13
g14
(g16
S'\x0e\x00\x00\x00\x00\x00\x00\x00'
tRp666
sg18
(lp667
sg20
I2
sg21
(lp668
sbag2
(g10
g4
NtRp669
(dp670
g13
g14
(g16
S'\r\x00\x00\x00\x00\x00\x00\x00'
tRp671
sg18
(lp672
sg20
I3
sg21
(lp673
sbag2
(g10
g4
NtRp674
(dp675
g13
g14
(g16
S'\r\x00\x00\x00\x00\x00\x00\x00'
tRp676
sg18
(lp677
sg20
I4
sg21
(lp678
sbag2
(g10
g4
NtRp679
(dp680
g13
g14
(g16
S'\x0b\x00\x00\x00\x00\x00\x00\x00'
tRp681
sg18
(lp682
sg20
I5
sg21
(lp683
sbag2
(g10
g4
NtRp684
(dp685
g13
g14
(g16
S'\x0b\x00\x00\x00\x00\x00\x00\x00'
tRp686
sg18
(lp687
sg20
I6
sg21
(lp688
I44
asbag2
(g10
g4
NtRp689
(dp690
g13
g14
(g16
S'\x0c\x00\x00\x00\x00\x00\x00\x00'
tRp691
sg18
(lp692
sg20
I7
sg21
(lp693
I42
asbag2
(g10
g4
NtRp694
(dp695
g13
g14
(g16
S'\x0c\x00\x00\x00\x00\x00\x00\x00'
tRp696
sg18
(lp697
sg20
I8
sg21
(lp698
I34
asbag2
(g10
g4
NtRp699
(dp700
g13
g14
(g16
S'\n\x00\x00\x00\x00\x00\x00\x00'
tRp701
sg18
(lp702
sg20
I9
sg21
(lp703
I35
asbag2
(g10
g4
NtRp704
(dp705
g13
g14
(g16
S'\n\x00\x00\x00\x00\x00\x00\x00'
tRp706
sg18
(lp707
sg20
I10
sg21
(lp708
I40
asbag2
(g10
g4
NtRp709
(dp710
g13
g14
(g16
S'\t\x00\x00\x00\x00\x00\x00\x00'
tRp711
sg18
(lp712
sg20
I11
sg21
(lp713
I36
asbag2
(g10
g4
NtRp714
(dp715
g13
g14
(g16
S'\n\x00\x00\x00\x00\x00\x00\x00'
tRp716
sg18
(lp717
sg20
I12
sg21
(lp718
I42
asbag2
(g10
g4
NtRp719
(dp720
g13
g14
(g16
S'\t\x00\x00\x00\x00\x00\x00\x00'
tRp721
sg18
(lp722
sg20
I13
sg21
(lp723
I44
asbag2
(g10
g4
NtRp724
(dp725
g13
g14
(g16
S'\n\x00\x00\x00\x00\x00\x00\x00'
tRp726
sg18
(lp727
sg20
I14
sg21
(lp728
I36
asbag2
(g10
g4
NtRp729
(dp730
g13
g14
(g16
S'\x0b\x00\x00\x00\x00\x00\x00\x00'
tRp731
sg18
(lp732
sg20
I15
sg21
(lp733
sbag2
(g10
g4
NtRp734
(dp735
g13
g14
(g16
S'\t\x00\x00\x00\x00\x00\x00\x00'
tRp736
sg18
(lp737
sg20
I16
sg21
(lp738
sbag2
(g10
g4
NtRp739
(dp740
g13
g14
(g16
S'\x0c\x00\x00\x00\x00\x00\x00\x00'
tRp741
sg18
(lp742
sg20
I17
sg21
(lp743
sbag2
(g10
g4
NtRp744
(dp745
g13
g14
(g16
S'\n\x00\x00\x00\x00\x00\x00\x00'
tRp746
sg18
(lp747
sg20
I18
sg21
(lp748
sbag2
(g10
g4
NtRp749
(dp750
g13
g14
(g16
S'\n\x00\x00\x00\x00\x00\x00\x00'
tRp751
sg18
(lp752
sg20
I19
sg21
(lp753
I45
asbag2
(g10
g4
NtRp754
(dp755
g13
g14
(g16
S'\x07\x00\x00\x00\x00\x00\x00\x00'
tRp756
sg18
(lp757
sg20
I20
sg21
(lp758
I34
asbag2
(g10
g4
NtRp759
(dp760
g13
g14
(g16
S'\t\x00\x00\x00\x00\x00\x00\x00'
tRp761
sg18
(lp762
sg20
I21
sg21
(lp763
I38
asbag2
(g10
g4
NtRp764
(dp765
g13
g14
(g16
S'\n\x00\x00\x00\x00\x00\x00\x00'
tRp766
sg18
(lp767
sg20
I22
sg21
(lp768
I35
asbag2
(g10
g4
NtRp769
(dp770
g13
g14
(g16
S'\x08\x00\x00\x00\x00\x00\x00\x00'
tRp771
sg18
(lp772
sg20
I23
sg21
(lp773
I39
asbag2
(g10
g4
NtRp774
(dp775
g13
g14
(g16
S'\x0b\x00\x00\x00\x00\x00\x00\x00'
tRp776
sg18
(lp777
sg20
I24
sg21
(lp778
I28
asbag2
(g10
g4
NtRp779
(dp780
g13
g14
(g16
S'\t\x00\x00\x00\x00\x00\x00\x00'
tRp781
sg18
(lp782
sg20
I25
sg21
(lp783
I34
aI38
asbag2
(g10
g4
NtRp784
(dp785
g13
g14
(g16
S'\x08\x00\x00\x00\x00\x00\x00\x00'
tRp786
sg18
(lp787
sg20
I26
sg21
(lp788
I32
aI36
asbag2
(g10
g4
NtRp789
(dp790
g13
g14
(g16
S'\x08\x00\x00\x00\x00\x00\x00\x00'
tRp791
sg18
(lp792
sg20
I27
sg21
(lp793
I29
aI34
asbag2
(g10
g4
NtRp794
(dp795
g13
g14
(g16
S'\x08\x00\x00\x00\x00\x00\x00\x00'
tRp796
sg18
(lp797
sg20
I28
sg21
(lp798
I35
asbag2
(g10
g4
NtRp799
(dp800
g13
g14
(g16
S'\n\x00\x00\x00\x00\x00\x00\x00'
tRp801
sg18
(lp802
sg20
I29
sg21
(lp803
I39
aI43
asbag2
(g10
g4
NtRp804
(dp805
g13
g14
(g16
S'\x08\x00\x00\x00\x00\x00\x00\x00'
tRp806
sg18
(lp807
sg20
I30
sg21
(lp808
I33
aI36
asbag2
(g10
g4
NtRp809
(dp810
g13
g14
(g16
S'\x07\x00\x00\x00\x00\x00\x00\x00'
tRp811
sg18
(lp812
sg20
I31
sg21
(lp813
I42
aI43
aI46
asbag2
(g10
g4
NtRp814
(dp815
g13
g14
(g16
S'\t\x00\x00\x00\x00\x00\x00\x00'
tRp816
sg18
(lp817
sg20
I32
sg21
(lp818
I32
aI33
aI36
asbag2
(g10
g4
NtRp819
(dp820
g13
g14
(g16
S'\t\x00\x00\x00\x00\x00\x00\x00'
tRp821
sg18
(lp822
sg20
I33
sg21
(lp823
I30
aI31
aI33
asbag2
(g10
g4
NtRp824
(dp825
g13
g14
(g16
S'\x08\x00\x00\x00\x00\x00\x00\x00'
tRp826
sg18
(lp827
sg20
I34
sg21
(lp828
I27
aI28
aI29
asbag2
(g10
g4
NtRp829
(dp830
g13
g14
(g16
S'\t\x00\x00\x00\x00\x00\x00\x00'
tRp831
sg18
(lp832
sg20
I35
sg21
(lp833
I32
aI34
aI35
asbag2
(g10
g4
NtRp834
(dp835
g13
g14
(g16
S'\n\x00\x00\x00\x00\x00\x00\x00'
tRp836
sg18
(lp837
sg20
I36
sg21
(lp838
I26
aI30
aI31
aI35
asbasg118
I0
sbtp839
a(S'r'
g2
(g3
g4
NtRp840
(dp841
g7
I4
sg8
(lp842
g2
(g10
g4
NtRp843
(dp844
g13
g14
(g16
S'\x1d\x00\x00\x00\x00\x00\x00\x00'
tRp845
sg18
(lp846
sg20
I0
sg21
(lp847
I82
aI94
asbag2
(g10
g4
NtRp848
(dp849
g13
g14
(g16
S'\x1c\x00\x00\x00\x00\x00\x00\x00'
tRp850
sg18
(lp851
sg20
I1
sg21
(lp852
I71
aI86
asbag2
(g10
g4
NtRp853
(dp854
g13
g14
(g16
S'\x1b\x00\x00\x00\x00\x00\x00\x00'
tRp855
sg18
(lp856
sg20
I2
sg21
(lp857
I70
aI85
asbag2
(g10
g4
NtRp858
(dp859
g13
g14
(g16
S'\x16\x00\x00\x00\x00\x00\x00\x00'
tRp860
sg18
(lp861
sg20
I3
sg21
(lp862
I66
aI76
asbag2
(g10
g4
NtRp863
(dp864
g13
g14
(g16
S'\x17\x00\x00\x00\x00\x00\x00\x00'
tRp865
sg18
(lp866
sg20
I4
sg21
(lp867
I82
aI91
asbasg118
I0
sbtp868
a(S'm'
g2
(g3
g4
NtRp869
(dp870
g7
I36
sg8
(lp871
g2
(g10
g4
NtRp872
(dp873
g13
g14
(g16
S"'\x00\x00\x00\x00\x00\x00\x00"
tRp874
sg18
(lp875
sg20
I0
sg21
(lp876
I98
aI123
asbag2
(g10
g4
NtRp877
(dp878
g13
g14
(g16
S'%\x00\x00\x00\x00\x00\x00\x00'
tRp879
sg18
(lp880
sg20
I1
sg21
(lp881
I90
aI111
aI117
asbag2
(g10
g4
NtRp882
(dp883
g13
g14
(g16
S'!\x00\x00\x00\x00\x00\x00\x00'
tRp884
sg18
(lp885
sg20
I2
sg21
(lp886
I87
aI107
asbag2
(g10
g4
NtRp887
(dp888
g13
g14
(g16
S'\x1f\x00\x00\x00\x00\x00\x00\x00'
tRp889
sg18
(lp890
sg20
I3
sg21
(lp891
I85
aI101
asbag2
(g10
g4
NtRp892
(dp893
g13
g14
(g16
S'\x1e\x00\x00\x00\x00\x00\x00\x00'
tRp894
sg18
(lp895
sg20
I4
sg21
(lp896
I100
aI117
asbag2
(g10
g4
NtRp897
(dp898
g13
g14
(g16
S'\x1d\x00\x00\x00\x00\x00\x00\x00'
tRp899
sg18
(lp900
sg20
I5
sg21
(lp901
I113
asbag2
(g10
g4
NtRp902
(dp903
g13
g14
(g16
S'\x1f\x00\x00\x00\x00\x00\x00\x00'
tRp904
sg18
(lp905
sg20
I6
sg21
(lp906
I102
aI114
asbag2
(g10
g4
NtRp907
(dp908
g13
g14
(g16
S'\x1a\x00\x00\x00\x00\x00\x00\x00'
tRp909
sg18
(lp910
sg20
I7
sg21
(lp911
I94
aI99
asbag2
(g10
g4
NtRp912
(dp913
g13
g14
(g16
S'\x19\x00\x00\x00\x00\x00\x00\x00'
tRp914
sg18
(lp915
sg20
I8
sg21
(lp916
I82
asbag2
(g10
g4
NtRp917
(dp918
g13
g14
(g16
S'\x1b\x00\x00\x00\x00\x00\x00\x00'
tRp919
sg18
(lp920
sg20
I9
sg21
(lp921
I86
aI101
asbag2
(g10
g4
NtRp922
(dp923
g13
g14
(g16
S'\x1c\x00\x00\x00\x00\x00\x00\x00'
tRp924
sg18
(lp925
sg20
I10
sg21
(lp926
I97
asbag2
(g10
g4
NtRp927
(dp928
g13
g14
(g16
S'\x15\x00\x00\x00\x00\x00\x00\x00'
tRp929
sg18
(lp930
sg20
I11
sg21
(lp931
I93
aI100
asbag2
(g10
g4
NtRp932
(dp933
g13
g14
(g16
S'\x18\x00\x00\x00\x00\x00\x00\x00'
tRp934
sg18
(lp935
sg20
I12
sg21
(lp936
I95
asbag2
(g10
g4
NtRp937
(dp938
g13
g14
(g16
S'\x1a\x00\x00\x00\x00\x00\x00\x00'
tRp939
sg18
(lp940
sg20
I13
sg21
(lp941
sbag2
(g10
g4
NtRp942
(dp943
g13
g14
(g16
S'\x1d\x00\x00\x00\x00\x00\x00\x00'
tRp944
sg18
(lp945
sg20
I14
sg21
(lp946
I83
aI92
asbag2
(g10
g4
NtRp947
(dp948
g13
g14
(g16
S'\x1a\x00\x00\x00\x00\x00\x00\x00'
tRp949
sg18
(lp950
sg20
I15
sg21
(lp951
I92
aI94
aI102
asbag2
(g10
g4
NtRp952
(dp953
g13
g14
(g16
S'\x1c\x00\x00\x00\x00\x00\x00\x00'
tRp954
sg18
(lp955
sg20
I16
sg21
(lp956
sbag2
(g10
g4
NtRp957
(dp958
g13
g14
(g16
S'\x1c\x00\x00\x00\x00\x00\x00\x00'
tRp959
sg18
(lp960
sg20
I17
sg21
(lp961
I92
aI100
aI103
asbag2
(g10
g4
NtRp962
(dp963
g13
g14
(g16
S'\x1a\x00\x00\x00\x00\x00\x00\x00'
tRp964
sg18
(lp965
sg20
I18
sg21
(lp966
I99
aI106
aI107
asbag2
(g10
g4
NtRp967
(dp968
g13
g14
(g16
S'\x1d\x00\x00\x00\x00\x00\x00\x00'
tRp969
sg18
(lp970
sg20
I19
sg21
(lp971
I103
aI114
asbag2
(g10
g4
NtRp972
(dp973
g13
g14
(g16
S'\x19\x00\x00\x00\x00\x00\x00\x00'
tRp974
sg18
(lp975
sg20
I20
sg21
(lp976
I83
aI85
aI97
asbag2
(g10
g4
NtRp977
(dp978
g13
g14
(g16
S'\x1a\x00\x00\x00\x00\x00\x00\x00'
tRp979
sg18
(lp980
sg20
I21
sg21
(lp981
I90
aI99
asbag2
(g10
g4
NtRp982
(dp983
g13
g14
(g16
S'\x1c\x00\x00\x00\x00\x00\x00\x00'
tRp984
sg18
(lp985
sg20
I22
sg21
(lp986
I84
aI100
asbag2
(g10
g4
NtRp987
(dp988
g13
g14
(g16
S'\x17\x00\x00\x00\x00\x00\x00\x00'
tRp989
sg18
(lp990
sg20
I23
sg21
(lp991
I95
aI99
ag14
(g16
S'V\x00\x00\x00\x00\x00\x00\x00'
tRp992
asbag2
(g10
g4
NtRp993
(dp994
g13
g14
(g16
S'\x18\x00\x00\x00\x00\x00\x00\x00'
tRp995
sg18
(lp996
sg20
I24
sg21
(lp997
I89
aI90
ag14
(g16
S'L\x00\x00\x00\x00\x00\x00\x00'
tRp998
asbag2
(g10
g4
NtRp999
(dp1000
g13
g14
(g16
S'\x19\x00\x00\x00\x00\x00\x00\x00'
tRp1001
sg18
(lp1002
sg20
I25
sg21
(lp1003
I88
aI90
ag14
(g16
S'M\x00\x00\x00\x00\x00\x00\x00'
tRp1004
asbag2
(g10
g4
NtRp1005
(dp1006
g13
g14
(g16
S'\x19\x00\x00\x00\x00\x00\x00\x00'
tRp1007
sg18
(lp1008
sg20
I26
sg21
(lp1009
I88
ag14
(g16
S'L\x00\x00\x00\x00\x00\x00\x00'
tRp1010
asbag2
(g10
g4
NtRp1011
(dp1012
g13
g14
(g16
S'\x18\x00\x00\x00\x00\x00\x00\x00'
tRp1013
sg18
(lp1014
sg20
I27
sg21
(lp1015
I81
aI84
asbag2
(g10
g4
NtRp1016
(dp1017
g13
g14
(g16
S'\x1a\x00\x00\x00\x00\x00\x00\x00'
tRp1018
sg18
(lp1019
sg20
I28
sg21
(lp1020
I90
asbag2
(g10
g4
NtRp1021
(dp1022
g13
g14
(g16
S'\x1c\x00\x00\x00\x00\x00\x00\x00'
tRp1023
sg18
(lp1024
sg20
I29
sg21
(lp1025
I95
asbag2
(g10
g4
NtRp1026
(dp1027
g13
g14
(g16
S'\x18\x00\x00\x00\x00\x00\x00\x00'
tRp1028
sg18
(lp1029
sg20
I30
sg21
(lp1030
I84
aI89
asbag2
(g10
g4
NtRp1031
(dp1032
g13
g14
(g16
S'\x17\x00\x00\x00\x00\x00\x00\x00'
tRp1033
sg18
(lp1034
sg20
I31
sg21
(lp1035
I101
aI104
asbag2
(g10
g4
NtRp1036
(dp1037
g13
g14
(g16
S'\x18\x00\x00\x00\x00\x00\x00\x00'
tRp1038
sg18
(lp1039
sg20
I32
sg21
(lp1040
I90
aI92
asbag2
(g10
g4
NtRp1041
(dp1042
g13
g14
(g16
S'\x19\x00\x00\x00\x00\x00\x00\x00'
tRp1043
sg18
(lp1044
sg20
I33
sg21
(lp1045
I93
asbag2
(g10
g4
NtRp1046
(dp1047
g13
g14
(g16
S'\x15\x00\x00\x00\x00\x00\x00\x00'
tRp1048
sg18
(lp1049
sg20
I34
sg21
(lp1050
I74
aI78
asbag2
(g10
g4
NtRp1051
(dp1052
g13
g14
(g16
S'\x17\x00\x00\x00\x00\x00\x00\x00'
tRp1053
sg18
(lp1054
sg20
I35
sg21
(lp1055
g14
(g16
S'S\x00\x00\x00\x00\x00\x00\x00'
tRp1056
asbag2
(g10
g4
NtRp1057
(dp1058
g13
g14
(g16
S'\x15\x00\x00\x00\x00\x00\x00\x00'
tRp1059
sg18
(lp1060
sg20
I36
sg21
(lp1061
g14
(g16
S'F\x00\x00\x00\x00\x00\x00\x00'
tRp1062
asbasg118
I0
sbtp1063
a(S'm'
g2
(g3
g4
NtRp1064
(dp1065
g7
I240
sg8
(lp1066
g2
(g10
g4
NtRp1067
(dp1068
g13
g14
(g16
S'(\x00\x00\x00\x00\x00\x00\x00'
tRp1069
sg18
(lp1070
sg20
I0
sg21
(lp1071
I107
aI114
asbag2
(g10
g4
NtRp1072
(dp1073
g13
g14
(g16
S'#\x00\x00\x00\x00\x00\x00\x00'
tRp1074
sg18
(lp1075
sg20
I1
sg21
(lp1076
I100
aI102
aI118
asbag2
(g10
g4
NtRp1077
(dp1078
g13
g14
(g16
S'#\x00\x00\x00\x00\x00\x00\x00'
tRp1079
sg18
(lp1080
sg20
I2
sg21
(lp1081
I93
aI96
asbag2
(g10
g4
NtRp1082
(dp1083
g13
g14
(g16
S'\x1e\x00\x00\x00\x00\x00\x00\x00'
tRp1084
sg18
(lp1085
sg20
I3
sg21
(lp1086
I88
ag14
(g16
S'f\x00\x00\x00\x00\x00\x00\x00'
tRp1087
asbag2
(g10
g4
NtRp1088
(dp1089
g13
g14
(g16
S'\x1f\x00\x00\x00\x00\x00\x00\x00'
tRp1090
sg18
(lp1091
sg20
I4
sg21
(lp1092
I101
aI106
aI121
aI125
asbag2
(g10
g4
NtRp1093
(dp1094
g13
g14
(g16
S'\x1c\x00\x00\x00\x00\x00\x00\x00'
tRp1095
sg18
(lp1096
sg20
I5
sg21
(lp1097
I104
aI109
aI124
asbag2
(g10
g4
NtRp1098
(dp1099
g13
g14
(g16
S'\x1e\x00\x00\x00\x00\x00\x00\x00'
tRp1100
sg18
(lp1101
sg20
I6
sg21
(lp1102
I99
aI101
aI106
aI121
asbag2
(g10
g4
NtRp1103
(dp1104
g13
g14
(g16
S'\x1c\x00\x00\x00\x00\x00\x00\x00'
tRp1105
sg18
(lp1106
sg20
I7
sg21
(lp1107
I89
aI103
aI104
asbag2
(g10
g4
NtRp1108
(dp1109
g13
g14
(g16
S'\x18\x00\x00\x00\x00\x00\x00\x00'
tRp1110
sg18
(lp1111
sg20
I8
sg21
(lp1112
I76
aI89
aI91
asbag2
(g10
g4
NtRp1113
(dp1114
g13
g14
(g16
S'\x1a\x00\x00\x00\x00\x00\x00\x00'
tRp1115
sg18
(lp1116
sg20
I9
sg21
(lp1117
I87
aI89
aI106
asbag2
(g10
g4
NtRp1118
(dp1119
g13
g14
(g16
S'\x1b\x00\x00\x00\x00\x00\x00\x00'
tRp1120
sg18
(lp1121
sg20
I10
sg21
(lp1122
I91
aI94
aI107
aI110
asbag2
(g10
g4
NtRp1123
(dp1124
g13
g14
(g16
S'\x14\x00\x00\x00\x00\x00\x00\x00'
tRp1125
sg18
(lp1126
sg20
I11
sg21
(lp1127
I89
aI92
aI104
aI110
asbag2
(g10
g4
NtRp1128
(dp1129
g13
g14
(g16
S'\x17\x00\x00\x00\x00\x00\x00\x00'
tRp1130
sg18
(lp1131
sg20
I12
sg21
(lp1132
I85
aI86
aI91
asbag2
(g10
g4
NtRp1133
(dp1134
g13
g14
(g16
S'\x19\x00\x00\x00\x00\x00\x00\x00'
tRp1135
sg18
(lp1136
sg20
I13
sg21
(lp1137
I87
aI88
aI91
aI104
asbag2
(g10
g4
NtRp1138
(dp1139
g13
g14
(g16
S'\x1a\x00\x00\x00\x00\x00\x00\x00'
tRp1140
sg18
(lp1141
sg20
I14
sg21
(lp1142
I76
aI78
aI90
asbag2
(g10
g4
NtRp1143
(dp1144
g13
g14
(g16
S'\x17\x00\x00\x00\x00\x00\x00\x00'
tRp1145
sg18
(lp1146
sg20
I15
sg21
(lp1147
I80
aI83
aI93
asbag2
(g10
g4
NtRp1148
(dp1149
g13
g14
(g16
S'\x1a\x00\x00\x00\x00\x00\x00\x00'
tRp1150
sg18
(lp1151
sg20
I16
sg21
(lp1152
I73
aI77
aI92
asbag2
(g10
g4
NtRp1153
(dp1154
g13
g14
(g16
S'\x1b\x00\x00\x00\x00\x00\x00\x00'
tRp1155
sg18
(lp1156
sg20
I17
sg21
(lp1157
I89
aI101
aI104
asbag2
(g10
g4
NtRp1158
(dp1159
g13
g14
(g16
S'\x19\x00\x00\x00\x00\x00\x00\x00'
tRp1160
sg18
(lp1161
sg20
I18
sg21
(lp1162
I92
aI95
aI97
aI109
asbag2
(g10
g4
NtRp1163
(dp1164
g13
g14
(g16
S'\x1c\x00\x00\x00\x00\x00\x00\x00'
tRp1165
sg18
(lp1166
sg20
I19
sg21
(lp1167
I104
aI105
aI116
aI118
asbag2
(g10
g4
NtRp1168
(dp1169
g13
g14
(g16
S'\x18\x00\x00\x00\x00\x00\x00\x00'
tRp1170
sg18
(lp1171
sg20
I20
sg21
(lp1172
I87
aI98
aI102
asbag2
(g10
g4
NtRp1173
(dp1174
g13
g14
(g16
S'\x18\x00\x00\x00\x00\x00\x00\x00'
tRp1175
sg18
(lp1176
sg20
I21
sg21
(lp1177
I101
aI104
aI107
ag14
(g16
S'V\x00\x00\x00\x00\x00\x00\x00'
tRp1178
asbag2
(g10
g4
NtRp1179
(dp1180
g13
g14
(g16
S'\x1b\x00\x00\x00\x00\x00\x00\x00'
tRp1181
sg18
(lp1182
sg20
I22
sg21
(lp1183
I86
aI101
aI103
aI105
asbag2
(g10
g4
NtRp1184
(dp1185
g13
g14
(g16
S'\x16\x00\x00\x00\x00\x00\x00\x00'
tRp1186
sg18
(lp1187
sg20
I23
sg21
(lp1188
I100
aI104
asbag2
(g10
g4
NtRp1189
(dp1190
g13
g14
(g16
S'\x16\x00\x00\x00\x00\x00\x00\x00'
tRp1191
sg18
(lp1192
sg20
I24
sg21
(lp1193
I93
aI97
asbag2
(g10
g4
NtRp1194
(dp1195
g13
g14
(g16
S'\x18\x00\x00\x00\x00\x00\x00\x00'
tRp1196
sg18
(lp1197
sg20
I25
sg21
(lp1198
I91
aI97
asbag2
(g10
g4
NtRp1199
(dp1200
g13
g14
(g16
S'\x18\x00\x00\x00\x00\x00\x00\x00'
tRp1201
sg18
(lp1202
sg20
I26
sg21
(lp1203
I89
aI93
asbag2
(g10
g4
NtRp1204
(dp1205
g13
g14
(g16
S'\x17\x00\x00\x00\x00\x00\x00\x00'
tRp1206
sg18
(lp1207
sg20
I27
sg21
(lp1208
I76
aI79
aI83
aI87
ag14
(g16
S'E\x00\x00\x00\x00\x00\x00\x00'
tRp1209
asbag2
(g10
g4
NtRp1210
(dp1211
g13
g14
(g16
S'\x19\x00\x00\x00\x00\x00\x00\x00'
tRp1212
sg18
(lp1213
sg20
I28
sg21
(lp1214
I87
aI91
aI94
ag14
(g16
S'J\x00\x00\x00\x00\x00\x00\x00'
tRp1215
asbag2
(g10
g4
NtRp1216
(dp1217
g13
g14
(g16
S'\x1b\x00\x00\x00\x00\x00\x00\x00'
tRp1218
sg18
(lp1219
sg20
I29
sg21
(lp1220
g14
(g16
S'H\x00\x00\x00\x00\x00\x00\x00'
tRp1221
asbag2
(g10
g4
NtRp1222
(dp1223
g13
g14
(g16
S'\x16\x00\x00\x00\x00\x00\x00\x00'
tRp1224
sg18
(lp1225
sg20
I30
sg21
(lp1226
I90
aI93
ag14
(g16
S'F\x00\x00\x00\x00\x00\x00\x00'
tRp1227
asbag2
(g10
g4
NtRp1228
(dp1229
g13
g14
(g16
S'\x14\x00\x00\x00\x00\x00\x00\x00'
tRp1230
sg18
(lp1231
sg20
I31
sg21
(lp1232
I92
asbag2
(g10
g4
NtRp1233
(dp1234
g13
g14
(g16
S'\x15\x00\x00\x00\x00\x00\x00\x00'
tRp1235
sg18
(lp1236
sg20
I32
sg21
(lp1237
I84
aI95
asbag2
(g10
g4
NtRp1238
(dp1239
g13
g14
(g16
S'\x16\x00\x00\x00\x00\x00\x00\x00'
tRp1240
sg18
(lp1241
sg20
I33
sg21
(lp1242
I85
asbag2
(g10
g4
NtRp1243
(dp1244
g13
g14
(g16
S'\x14\x00\x00\x00\x00\x00\x00\x00'
tRp1245
sg18
(lp1246
sg20
I34
sg21
(lp1247
I83
asbag2
(g10
g4
NtRp1248
(dp1249
g13
g14
(g16
S'\x18\x00\x00\x00\x00\x00\x00\x00'
tRp1250
sg18
(lp1251
sg20
I35
sg21
(lp1252
I86
aI97
asbag2
(g10
g4
NtRp1253
(dp1254
g13
g14
(g16
S'\x17\x00\x00\x00\x00\x00\x00\x00'
tRp1255
sg18
(lp1256
sg20
I36
sg21
(lp1257
I91
asbag2
(g10
g4
NtRp1258
(dp1259
g13
g14
(g16
S'\x15\x00\x00\x00\x00\x00\x00\x00'
tRp1260
sg18
(lp1261
sg20
I37
sg21
(lp1262
I85
ag14
(g16
S'<\x00\x00\x00\x00\x00\x00\x00'
tRp1263
asbag2
(g10
g4
NtRp1264
(dp1265
g13
g14
(g16
S'\x16\x00\x00\x00\x00\x00\x00\x00'
tRp1266
sg18
(lp1267
sg20
I38
sg21
(lp1268
I83
aI94
aI97
ag14
(g16
S'M\x00\x00\x00\x00\x00\x00\x00'
tRp1269
asbag2
(g10
g4
NtRp1270
(dp1271
g13
g14
(g16
S'\x16\x00\x00\x00\x00\x00\x00\x00'
tRp1272
sg18
(lp1273
sg20
I39
sg21
(lp1274
I62
aI73
aI87
aI89
asbag2
(g10
g4
NtRp1275
(dp1276
g13
g14
(g16
S'\x15\x00\x00\x00\x00\x00\x00\x00'
tRp1277
sg18
(lp1278
sg20
I40
sg21
(lp1279
I61
aI75
aI82
aI88
asbag2
(g10
g4
NtRp1280
(dp1281
g13
g14
(g16
S'\x16\x00\x00\x00\x00\x00\x00\x00'
tRp1282
sg18
(lp1283
sg20
I41
sg21
(lp1284
I64
aI81
aI86
aI91
aI94
asbag2
(g10
g4
NtRp1285
(dp1286
g13
g14
(g16
S'\x13\x00\x00\x00\x00\x00\x00\x00'
tRp1287
sg18
(lp1288
sg20
I42
sg21
(lp1289
I83
ag14
(g16
S'?\x00\x00\x00\x00\x00\x00\x00'
tRp1290
asbag2
(g10
g4
NtRp1291
(dp1292
g13
g14
(g16
S'\x15\x00\x00\x00\x00\x00\x00\x00'
tRp1293
sg18
(lp1294
sg20
I43
sg21
(lp1295
I54
aI82
asbag2
(g10
g4
NtRp1296
(dp1297
g13
g14
(g16
S'\x15\x00\x00\x00\x00\x00\x00\x00'
tRp1298
sg18
(lp1299
sg20
I44
sg21
(lp1300
I67
aI93
aI96
asbag2
(g10
g4
NtRp1301
(dp1302
g13
g14
(g16
S'\x16\x00\x00\x00\x00\x00\x00\x00'
tRp1303
sg18
(lp1304
sg20
I45
sg21
(lp1305
I52
aI75
aI79
asbag2
(g10
g4
NtRp1306
(dp1307
g13
g14
(g16
S'\x17\x00\x00\x00\x00\x00\x00\x00'
tRp1308
sg18
(lp1309
sg20
I46
sg21
(lp1310
I66
aI91
aI92
aI96
asbag2
(g10
g4
NtRp1311
(dp1312
g13
g14
(g16
S'\x19\x00\x00\x00\x00\x00\x00\x00'
tRp1313
sg18
(lp1314
sg20
I47
sg21
(lp1315
I66
aI79
aI87
aI88
aI92
asbag2
(g10
g4
NtRp1316
(dp1317
g13
g14
(g16
S'\x15\x00\x00\x00\x00\x00\x00\x00'
tRp1318
sg18
(lp1319
sg20
I48
sg21
(lp1320
I59
aI83
asbag2
(g10
g4
NtRp1321
(dp1322
g13
g14
(g16
S'\x14\x00\x00\x00\x00\x00\x00\x00'
tRp1323
sg18
(lp1324
sg20
I49
sg21
(lp1325
I51
aI70
aI72
asbag2
(g10
g4
NtRp1326
(dp1327
g13
g14
(g16
S'\x14\x00\x00\x00\x00\x00\x00\x00'
tRp1328
sg18
(lp1329
sg20
I50
sg21
(lp1330
g14
(g16
S'P\x00\x00\x00\x00\x00\x00\x00'
tRp1331
asbag2
(g10
g4
NtRp1332
(dp1333
g13
g14
(g16
S'\x13\x00\x00\x00\x00\x00\x00\x00'
tRp1334
sg18
(lp1335
sg20
I51
sg21
(lp1336
I59
aI64
aI69
aI70
aI72
asbag2
(g10
g4
NtRp1337
(dp1338
g13
g14
(g16
S'\x17\x00\x00\x00\x00\x00\x00\x00'
tRp1339
sg18
(lp1340
sg20
I52
sg21
(lp1341
I60
aI74
aI78
aI81
asbag2
(g10
g4
NtRp1342
(dp1343
g13
g14
(g16
S'\x15\x00\x00\x00\x00\x00\x00\x00'
tRp1344
sg18
(lp1345
sg20
I53
sg21
(lp1346
I63
aI74
aI79
aI81
asbag2
(g10
g4
NtRp1347
(dp1348
g13
g14
(g16
S'\x16\x00\x00\x00\x00\x00\x00\x00'
tRp1349
sg18
(lp1350
sg20
I54
sg21
(lp1351
I64
aI78
aI81
aI83
asbag2
(g10
g4
NtRp1352
(dp1353
g13
g14
(g16
S'\x15\x00\x00\x00\x00\x00\x00\x00'
tRp1354
sg18
(lp1355
sg20
I55
sg21
(lp1356
I64
aI82
ag14
(g16
S'J\x00\x00\x00\x00\x00\x00\x00'
tRp1357
asbag2
(g10
g4
NtRp1358
(dp1359
g13
g14
(g16
S'\x18\x00\x00\x00\x00\x00\x00\x00'
tRp1360
sg18
(lp1361
sg20
I56
sg21
(lp1362
I64
aI72
asbag2
(g10
g4
NtRp1363
(dp1364
g13
g14
(g16
S'\x16\x00\x00\x00\x00\x00\x00\x00'
tRp1365
sg18
(lp1366
sg20
I57
sg21
(lp1367
I70
aI90
asbag2
(g10
g4
NtRp1368
(dp1369
g13
g14
(g16
S'\x16\x00\x00\x00\x00\x00\x00\x00'
tRp1370
sg18
(lp1371
sg20
I58
sg21
(lp1372
sbag2
(g10
g4
NtRp1373
(dp1374
g13
g14
(g16
S'\x11\x00\x00\x00\x00\x00\x00\x00'
tRp1375
sg18
(lp1376
sg20
I59
sg21
(lp1377
I69
asbag2
(g10
g4
NtRp1378
(dp1379
g13
g14
(g16
S'\x13\x00\x00\x00\x00\x00\x00\x00'
tRp1380
sg18
(lp1381
sg20
I60
sg21
(lp1382
sbag2
(g10
g4
NtRp1383
(dp1384
g13
g14
(g16
S'\x14\x00\x00\x00\x00\x00\x00\x00'
tRp1385
sg18
(lp1386
sg20
I61
sg21
(lp1387
sbag2
(g10
g4
NtRp1388
(dp1389
g13
g14
(g16
S'\x13\x00\x00\x00\x00\x00\x00\x00'
tRp1390
sg18
(lp1391
sg20
I62
sg21
(lp1392
sbag2
(g10
g4
NtRp1393
(dp1394
g13
g14
(g16
S'\x13\x00\x00\x00\x00\x00\x00\x00'
tRp1395
sg18
(lp1396
sg20
I63
sg21
(lp1397
sbag2
(g10
g4
NtRp1398
(dp1399
g13
g14
(g16
S'\x16\x00\x00\x00\x00\x00\x00\x00'
tRp1400
sg18
(lp1401
sg20
I64
sg21
(lp1402
sbag2
(g10
g4
NtRp1403
(dp1404
g13
g14
(g16
S'\x12\x00\x00\x00\x00\x00\x00\x00'
tRp1405
sg18
(lp1406
sg20
I65
sg21
(lp1407
sbag2
(g10
g4
NtRp1408
(dp1409
g13
g14
(g16
S'\x15\x00\x00\x00\x00\x00\x00\x00'
tRp1410
sg18
(lp1411
sg20
I66
sg21
(lp1412
sbag2
(g10
g4
NtRp1413
(dp1414
g13
g14
(g16
S'\x10\x00\x00\x00\x00\x00\x00\x00'
tRp1415
sg18
(lp1416
sg20
I67
sg21
(lp1417
sbag2
(g10
g4
NtRp1418
(dp1419
g13
g14
(g16
S'\x0f\x00\x00\x00\x00\x00\x00\x00'
tRp1420
sg18
(lp1421
sg20
I68
sg21
(lp1422
I65
aI76
asbag2
(g10
g4
NtRp1423
(dp1424
g13
g14
(g16
S'\x0e\x00\x00\x00\x00\x00\x00\x00'
tRp1425
sg18
(lp1426
sg20
I69
sg21
(lp1427
I58
asbag2
(g10
g4
NtRp1428
(dp1429
g13
g14
(g16
S'\x14\x00\x00\x00\x00\x00\x00\x00'
tRp1430
sg18
(lp1431
sg20
I70
sg21
(lp1432
I65
asbag2
(g10
g4
NtRp1433
(dp1434
g13
g14
(g16
S'\x12\x00\x00\x00\x00\x00\x00\x00'
tRp1435
sg18
(lp1436
sg20
I71
sg21
(lp1437
I57
aI65
asbag2
(g10
g4
NtRp1438
(dp1439
g13
g14
(g16
S'\x11\x00\x00\x00\x00\x00\x00\x00'
tRp1440
sg18
(lp1441
sg20
I72
sg21
(lp1442
I50
asbag2
(g10
g4
NtRp1443
(dp1444
g13
g14
(g16
S'\x10\x00\x00\x00\x00\x00\x00\x00'
tRp1445
sg18
(lp1446
sg20
I73
sg21
(lp1447
sbag2
(g10
g4
NtRp1448
(dp1449
g13
g14
(g16
S'\x11\x00\x00\x00\x00\x00\x00\x00'
tRp1450
sg18
(lp1451
sg20
I74
sg21
(lp1452
I57
aI65
asbag2
(g10
g4
NtRp1453
(dp1454
g13
g14
(g16
S'\x0f\x00\x00\x00\x00\x00\x00\x00'
tRp1455
sg18
(lp1456
sg20
I75
sg21
(lp1457
I73
asbag2
(g10
g4
NtRp1458
(dp1459
g13
g14
(g16
S'\r\x00\x00\x00\x00\x00\x00\x00'
tRp1460
sg18
(lp1461
sg20
I76
sg21
(lp1462
I47
asbag2
(g10
g4
NtRp1463
(dp1464
g13
g14
(g16
S'\x0f\x00\x00\x00\x00\x00\x00\x00'
tRp1465
sg18
(lp1466
sg20
I77
sg21
(lp1467
I60
aI66
asbag2
(g10
g4
NtRp1468
(dp1469
g13
g14
(g16
S'\x0e\x00\x00\x00\x00\x00\x00\x00'
tRp1470
sg18
(lp1471
sg20
I78
sg21
(lp1472
I65
asbag2
(g10
g4
NtRp1473
(dp1474
g13
g14
(g16
S'\x10\x00\x00\x00\x00\x00\x00\x00'
tRp1475
sg18
(lp1476
sg20
I79
sg21
(lp1477
I51
aI71
asbag2
(g10
g4
NtRp1478
(dp1479
g13
g14
(g16
S'\x12\x00\x00\x00\x00\x00\x00\x00'
tRp1480
sg18
(lp1481
sg20
I80
sg21
(lp1482
I56
aI64
aI74
asbag2
(g10
g4
NtRp1483
(dp1484
g13
g14
(g16
S'\x11\x00\x00\x00\x00\x00\x00\x00'
tRp1485
sg18
(lp1486
sg20
I81
sg21
(lp1487
sbag2
(g10
g4
NtRp1488
(dp1489
g13
g14
(g16
S'\x12\x00\x00\x00\x00\x00\x00\x00'
tRp1490
sg18
(lp1491
sg20
I82
sg21
(lp1492
I74
asbag2
(g10
g4
NtRp1493
(dp1494
g13
g14
(g16
S'\x12\x00\x00\x00\x00\x00\x00\x00'
tRp1495
sg18
(lp1496
sg20
I83
sg21
(lp1497
I59
aI69
asbag2
(g10
g4
NtRp1498
(dp1499
g13
g14
(g16
S'\x10\x00\x00\x00\x00\x00\x00\x00'
tRp1500
sg18
(lp1501
sg20
I84
sg21
(lp1502
I72
asbag2
(g10
g4
NtRp1503
(dp1504
g13
g14
(g16
S'\x11\x00\x00\x00\x00\x00\x00\x00'
tRp1505
sg18
(lp1506
sg20
I85
sg21
(lp1507
I53
aI65
asbag2
(g10
g4
NtRp1508
(dp1509
g13
g14
(g16
S'\x0f\x00\x00\x00\x00\x00\x00\x00'
tRp1510
sg18
(lp1511
sg20
I86
sg21
(lp1512
sbag2
(g10
g4
NtRp1513
(dp1514
g13
g14
(g16
S'\x10\x00\x00\x00\x00\x00\x00\x00'
tRp1515
sg18
(lp1516
sg20
I87
sg21
(lp1517
sbag2
(g10
g4
NtRp1518
(dp1519
g13
g14
(g16
S'\x10\x00\x00\x00\x00\x00\x00\x00'
tRp1520
sg18
(lp1521
sg20
I88
sg21
(lp1522
I81
asbag2
(g10
g4
NtRp1523
(dp1524
g13
g14
(g16
S'\x10\x00\x00\x00\x00\x00\x00\x00'
tRp1525
sg18
(lp1526
sg20
I89
sg21
(lp1527
sbag2
(g10
g4
NtRp1528
(dp1529
g13
g14
(g16
S'\x0f\x00\x00\x00\x00\x00\x00\x00'
tRp1530
sg18
(lp1531
sg20
I90
sg21
(lp1532
I70
asbag2
(g10
g4
NtRp1533
(dp1534
g13
g14
(g16
S'\x11\x00\x00\x00\x00\x00\x00\x00'
tRp1535
sg18
(lp1536
sg20
I91
sg21
(lp1537
sbag2
(g10
g4
NtRp1538
(dp1539
g13
g14
(g16
S'\x0f\x00\x00\x00\x00\x00\x00\x00'
tRp1540
sg18
(lp1541
sg20
I92
sg21
(lp1542
sbag2
(g10
g4
NtRp1543
(dp1544
g13
g14
(g16
S'\r\x00\x00\x00\x00\x00\x00\x00'
tRp1545
sg18
(lp1546
sg20
I93
sg21
(lp1547
sbag2
(g10
g4
NtRp1548
(dp1549
g13
g14
(g16
S'\x10\x00\x00\x00\x00\x00\x00\x00'
tRp1550
sg18
(lp1551
sg20
I94
sg21
(lp1552
I65
asbag2
(g10
g4
NtRp1553
(dp1554
g13
g14
(g16
S'\r\x00\x00\x00\x00\x00\x00\x00'
tRp1555
sg18
(lp1556
sg20
I95
sg21
(lp1557
sbag2
(g10
g4
NtRp1558
(dp1559
g13
g14
(g16
S'\x0f\x00\x00\x00\x00\x00\x00\x00'
tRp1560
sg18
(lp1561
sg20
I96
sg21
(lp1562
sbag2
(g10
g4
NtRp1563
(dp1564
g13
g14
(g16
S'\x0e\x00\x00\x00\x00\x00\x00\x00'
tRp1565
sg18
(lp1566
sg20
I97
sg21
(lp1567
sbag2
(g10
g4
NtRp1568
(dp1569
g13
g14
(g16
S'\x10\x00\x00\x00\x00\x00\x00\x00'
tRp1570
sg18
(lp1571
sg20
I98
sg21
(lp1572
sbag2
(g10
g4
NtRp1573
(dp1574
g13
g14
(g16
S'\x12\x00\x00\x00\x00\x00\x00\x00'
tRp1575
sg18
(lp1576
sg20
I99
sg21
(lp1577
I59
aI61
asbag2
(g10
g4
NtRp1578
(dp1579
g13
g14
(g16
S'\x13\x00\x00\x00\x00\x00\x00\x00'
tRp1580
sg18
(lp1581
sg20
I100
sg21
(lp1582
I70
asbag2
(g10
g4
NtRp1583
(dp1584
g13
g14
(g16
S'\x13\x00\x00\x00\x00\x00\x00\x00'
tRp1585
sg18
(lp1586
sg20
I101
sg21
(lp1587
sbag2
(g10
g4
NtRp1588
(dp1589
g13
g14
(g16
S'\x12\x00\x00\x00\x00\x00\x00\x00'
tRp1590
sg18
(lp1591
sg20
I102
sg21
(lp1592
I69
asbag2
(g10
g4
NtRp1593
(dp1594
g13
g14
(g16
S'\x15\x00\x00\x00\x00\x00\x00\x00'
tRp1595
sg18
(lp1596
sg20
I103
sg21
(lp1597
I67
asbag2
(g10
g4
NtRp1598
(dp1599
g13
g14
(g16
S'\x14\x00\x00\x00\x00\x00\x00\x00'
tRp1600
sg18
(lp1601
sg20
I104
sg21
(lp1602
I61
asbag2
(g10
g4
NtRp1603
(dp1604
g13
g14
(g16
S'\x17\x00\x00\x00\x00\x00\x00\x00'
tRp1605
sg18
(lp1606
sg20
I105
sg21
(lp1607
I79
aI82
asbag2
(g10
g4
NtRp1608
(dp1609
g13
g14
(g16
S'\x18\x00\x00\x00\x00\x00\x00\x00'
tRp1610
sg18
(lp1611
sg20
I106
sg21
(lp1612
I74
aI76
asbag2
(g10
g4
NtRp1613
(dp1614
g13
g14
(g16
S'\x14\x00\x00\x00\x00\x00\x00\x00'
tRp1615
sg18
(lp1616
sg20
I107
sg21
(lp1617
I71
asbag2
(g10
g4
NtRp1618
(dp1619
g13
g14
(g16
S'\x11\x00\x00\x00\x00\x00\x00\x00'
tRp1620
sg18
(lp1621
sg20
I108
sg21
(lp1622
I64
asbag2
(g10
g4
NtRp1623
(dp1624
g13
g14
(g16
S'\x16\x00\x00\x00\x00\x00\x00\x00'
tRp1625
sg18
(lp1626
sg20
I109
sg21
(lp1627
I62
asbag2
(g10
g4
NtRp1628
(dp1629
g13
g14
(g16
S'\x17\x00\x00\x00\x00\x00\x00\x00'
tRp1630
sg18
(lp1631
sg20
I110
sg21
(lp1632
I77
asbag2
(g10
g4
NtRp1633
(dp1634
g13
g14
(g16
S'\x16\x00\x00\x00\x00\x00\x00\x00'
tRp1635
sg18
(lp1636
sg20
I111
sg21
(lp1637
sbag2
(g10
g4
NtRp1638
(dp1639
g13
g14
(g16
S'\x16\x00\x00\x00\x00\x00\x00\x00'
tRp1640
sg18
(lp1641
sg20
I112
sg21
(lp1642
I83
asbag2
(g10
g4
NtRp1643
(dp1644
g13
g14
(g16
S'\x16\x00\x00\x00\x00\x00\x00\x00'
tRp1645
sg18
(lp1646
sg20
I113
sg21
(lp1647
sbag2
(g10
g4
NtRp1648
(dp1649
g13
g14
(g16
S'\x16\x00\x00\x00\x00\x00\x00\x00'
tRp1650
sg18
(lp1651
sg20
I114
sg21
(lp1652
I75
aI78
asbag2
(g10
g4
NtRp1653
(dp1654
g13
g14
(g16
S'\x17\x00\x00\x00\x00\x00\x00\x00'
tRp1655
sg18
(lp1656
sg20
I115
sg21
(lp1657
sbag2
(g10
g4
NtRp1658
(dp1659
g13
g14
(g16
S'\x16\x00\x00\x00\x00\x00\x00\x00'
tRp1660
sg18
(lp1661
sg20
I116
sg21
(lp1662
I74
aI77
asbag2
(g10
g4
NtRp1663
(dp1664
g13
g14
(g16
S'\x18\x00\x00\x00\x00\x00\x00\x00'
tRp1665
sg18
(lp1666
sg20
I117
sg21
(lp1667
I80
asbag2
(g10
g4
NtRp1668
(dp1669
g13
g14
(g16
S'\x17\x00\x00\x00\x00\x00\x00\x00'
tRp1670
sg18
(lp1671
sg20
I118
sg21
(lp1672
I76
asbag2
(g10
g4
NtRp1673
(dp1674
g13
g14
(g16
S'\x1a\x00\x00\x00\x00\x00\x00\x00'
tRp1675
sg18
(lp1676
sg20
I119
sg21
(lp1677
I76
asbag2
(g10
g4
NtRp1678
(dp1679
g13
g14
(g16
S'\x19\x00\x00\x00\x00\x00\x00\x00'
tRp1680
sg18
(lp1681
sg20
I120
sg21
(lp1682
I78
aI80
asbag2
(g10
g4
NtRp1683
(dp1684
g13
g14
(g16
S'\x18\x00\x00\x00\x00\x00\x00\x00'
tRp1685
sg18
(lp1686
sg20
I121
sg21
(lp1687
I87
asbag2
(g10
g4
NtRp1688
(dp1689
g13
g14
(g16
S'\x1b\x00\x00\x00\x00\x00\x00\x00'
tRp1690
sg18
(lp1691
sg20
I122
sg21
(lp1692
sbag2
(g10
g4
NtRp1693
(dp1694
g13
g14
(g16
S'\x1a\x00\x00\x00\x00\x00\x00\x00'
tRp1695
sg18
(lp1696
sg20
I123
sg21
(lp1697
sbag2
(g10
g4
NtRp1698
(dp1699
g13
g14
(g16
S'\x17\x00\x00\x00\x00\x00\x00\x00'
tRp1700
sg18
(lp1701
sg20
I124
sg21
(lp1702
sbag2
(g10
g4
NtRp1703
(dp1704
g13
g14
(g16
S'\x15\x00\x00\x00\x00\x00\x00\x00'
tRp1705
sg18
(lp1706
sg20
I125
sg21
(lp1707
I66
asbag2
(g10
g4
NtRp1708
(dp1709
g13
g14
(g16
S'\x16\x00\x00\x00\x00\x00\x00\x00'
tRp1710
sg18
(lp1711
sg20
I126
sg21
(lp1712
I75
asbag2
(g10
g4
NtRp1713
(dp1714
g13
g14
(g16
S'\x19\x00\x00\x00\x00\x00\x00\x00'
tRp1715
sg18
(lp1716
sg20
I127
sg21
(lp1717
I70
aI73
asbag2
(g10
g4
NtRp1718
(dp1719
g13
g14
(g16
S'\x1a\x00\x00\x00\x00\x00\x00\x00'
tRp1720
sg18
(lp1721
sg20
I128
sg21
(lp1722
I81
asbag2
(g10
g4
NtRp1723
(dp1724
g13
g14
(g16
S'\x19\x00\x00\x00\x00\x00\x00\x00'
tRp1725
sg18
(lp1726
sg20
I129
sg21
(lp1727
I76
asbag2
(g10
g4
NtRp1728
(dp1729
g13
g14
(g16
S'\x1b\x00\x00\x00\x00\x00\x00\x00'
tRp1730
sg18
(lp1731
sg20
I130
sg21
(lp1732
I69
aI70
aI72
asbag2
(g10
g4
NtRp1733
(dp1734
g13
g14
(g16
S'\x18\x00\x00\x00\x00\x00\x00\x00'
tRp1735
sg18
(lp1736
sg20
I131
sg21
(lp1737
I65
aI66
aI67
asbag2
(g10
g4
NtRp1738
(dp1739
g13
g14
(g16
S'\x1b\x00\x00\x00\x00\x00\x00\x00'
tRp1740
sg18
(lp1741
sg20
I132
sg21
(lp1742
I66
aI70
asbag2
(g10
g4
NtRp1743
(dp1744
g13
g14
(g16
S'\x1a\x00\x00\x00\x00\x00\x00\x00'
tRp1745
sg18
(lp1746
sg20
I133
sg21
(lp1747
I68
aI69
asbag2
(g10
g4
NtRp1748
(dp1749
g13
g14
(g16
S'\x19\x00\x00\x00\x00\x00\x00\x00'
tRp1750
sg18
(lp1751
sg20
I134
sg21
(lp1752
I70
asbag2
(g10
g4
NtRp1753
(dp1754
g13
g14
(g16
S'\x1c\x00\x00\x00\x00\x00\x00\x00'
tRp1755
sg18
(lp1756
sg20
I135
sg21
(lp1757
I72
asbag2
(g10
g4
NtRp1758
(dp1759
g13
g14
(g16
S'\x18\x00\x00\x00\x00\x00\x00\x00'
tRp1760
sg18
(lp1761
sg20
I136
sg21
(lp1762
I65
aI67
aI73
asbag2
(g10
g4
NtRp1763
(dp1764
g13
g14
(g16
S'\x19\x00\x00\x00\x00\x00\x00\x00'
tRp1765
sg18
(lp1766
sg20
I137
sg21
(lp1767
I70
asbag2
(g10
g4
NtRp1768
(dp1769
g13
g14
(g16
S'\x1b\x00\x00\x00\x00\x00\x00\x00'
tRp1770
sg18
(lp1771
sg20
I138
sg21
(lp1772
I68
asbag2
(g10
g4
NtRp1773
(dp1774
g13
g14
(g16
S'\x18\x00\x00\x00\x00\x00\x00\x00'
tRp1775
sg18
(lp1776
sg20
I139
sg21
(lp1777
I62
aI63
asbag2
(g10
g4
NtRp1778
(dp1779
g13
g14
(g16
S'\x17\x00\x00\x00\x00\x00\x00\x00'
tRp1780
sg18
(lp1781
sg20
I140
sg21
(lp1782
sbag2
(g10
g4
NtRp1783
(dp1784
g13
g14
(g16
S'\x15\x00\x00\x00\x00\x00\x00\x00'
tRp1785
sg18
(lp1786
sg20
I141
sg21
(lp1787
I65
aI66
aI68
asbag2
(g10
g4
NtRp1788
(dp1789
g13
g14
(g16
S'\x17\x00\x00\x00\x00\x00\x00\x00'
tRp1790
sg18
(lp1791
sg20
I142
sg21
(lp1792
I73
asbag2
(g10
g4
NtRp1793
(dp1794
g13
g14
(g16
S'\x19\x00\x00\x00\x00\x00\x00\x00'
tRp1795
sg18
(lp1796
sg20
I143
sg21
(lp1797
I76
asbag2
(g10
g4
NtRp1798
(dp1799
g13
g14
(g16
S'\x19\x00\x00\x00\x00\x00\x00\x00'
tRp1800
sg18
(lp1801
sg20
I144
sg21
(lp1802
I72
aI73
aI74
aI75
asbag2
(g10
g4
NtRp1803
(dp1804
g13
g14
(g16
S'\x18\x00\x00\x00\x00\x00\x00\x00'
tRp1805
sg18
(lp1806
sg20
I145
sg21
(lp1807
I69
asbag2
(g10
g4
NtRp1808
(dp1809
g13
g14
(g16
S'\x17\x00\x00\x00\x00\x00\x00\x00'
tRp1810
sg18
(lp1811
sg20
I146
sg21
(lp1812
I66
aI67
asbag2
(g10
g4
NtRp1813
(dp1814
g13
g14
(g16
S'\x13\x00\x00\x00\x00\x00\x00\x00'
tRp1815
sg18
(lp1816
sg20
I147
sg21
(lp1817
I66
asbag2
(g10
g4
NtRp1818
(dp1819
g13
g14
(g16
S'\x15\x00\x00\x00\x00\x00\x00\x00'
tRp1820
sg18
(lp1821
sg20
I148
sg21
(lp1822
sbag2
(g10
g4
NtRp1823
(dp1824
g13
g14
(g16
S'\x19\x00\x00\x00\x00\x00\x00\x00'
tRp1825
sg18
(lp1826
sg20
I149
sg21
(lp1827
I66
aI68
asbag2
(g10
g4
NtRp1828
(dp1829
g13
g14
(g16
S'\x16\x00\x00\x00\x00\x00\x00\x00'
tRp1830
sg18
(lp1831
sg20
I150
sg21
(lp1832
I75
asbag2
(g10
g4
NtRp1833
(dp1834
g13
g14
(g16
S'\x14\x00\x00\x00\x00\x00\x00\x00'
tRp1835
sg18
(lp1836
sg20
I151
sg21
(lp1837
I65
aI67
asbag2
(g10
g4
NtRp1838
(dp1839
g13
g14
(g16
S'\x18\x00\x00\x00\x00\x00\x00\x00'
tRp1840
sg18
(lp1841
sg20
I152
sg21
(lp1842
I71
asbag2
(g10
g4
NtRp1843
(dp1844
g13
g14
(g16
S'\x17\x00\x00\x00\x00\x00\x00\x00'
tRp1845
sg18
(lp1846
sg20
I153
sg21
(lp1847
sbag2
(g10
g4
NtRp1848
(dp1849
g13
g14
(g16
S'\x15\x00\x00\x00\x00\x00\x00\x00'
tRp1850
sg18
(lp1851
sg20
I154
sg21
(lp1852
I73
aI80
asbag2
(g10
g4
NtRp1853
(dp1854
g13
g14
(g16
S'\x15\x00\x00\x00\x00\x00\x00\x00'
tRp1855
sg18
(lp1856
sg20
I155
sg21
(lp1857
sbag2
(g10
g4
NtRp1858
(dp1859
g13
g14
(g16
S'\x11\x00\x00\x00\x00\x00\x00\x00'
tRp1860
sg18
(lp1861
sg20
I156
sg21
(lp1862
sbag2
(g10
g4
NtRp1863
(dp1864
g13
g14
(g16
S'\x11\x00\x00\x00\x00\x00\x00\x00'
tRp1865
sg18
(lp1866
sg20
I157
sg21
(lp1867
I59
asbag2
(g10
g4
NtRp1868
(dp1869
g13
g14
(g16
S'\x16\x00\x00\x00\x00\x00\x00\x00'
tRp1870
sg18
(lp1871
sg20
I158
sg21
(lp1872
sbag2
(g10
g4
NtRp1873
(dp1874
g13
g14
(g16
S'\x16\x00\x00\x00\x00\x00\x00\x00'
tRp1875
sg18
(lp1876
sg20
I159
sg21
(lp1877
I72
asbag2
(g10
g4
NtRp1878
(dp1879
g13
g14
(g16
S'\x17\x00\x00\x00\x00\x00\x00\x00'
tRp1880
sg18
(lp1881
sg20
I160
sg21
(lp1882
sbag2
(g10
g4
NtRp1883
(dp1884
g13
g14
(g16
S'\x15\x00\x00\x00\x00\x00\x00\x00'
tRp1885
sg18
(lp1886
sg20
I161
sg21
(lp1887
I71
aI76
asbag2
(g10
g4
NtRp1888
(dp1889
g13
g14
(g16
S'\x16\x00\x00\x00\x00\x00\x00\x00'
tRp1890
sg18
(lp1891
sg20
I162
sg21
(lp1892
I72
aI74
aI75
asbag2
(g10
g4
NtRp1893
(dp1894
g13
g14
(g16
S'\x14\x00\x00\x00\x00\x00\x00\x00'
tRp1895
sg18
(lp1896
sg20
I163
sg21
(lp1897
I80
aI82
asbag2
(g10
g4
NtRp1898
(dp1899
g13
g14
(g16
S'\x12\x00\x00\x00\x00\x00\x00\x00'
tRp1900
sg18
(lp1901
sg20
I164
sg21
(lp1902
I78
aI79
asbag2
(g10
g4
NtRp1903
(dp1904
g13
g14
(g16
S'\x13\x00\x00\x00\x00\x00\x00\x00'
tRp1905
sg18
(lp1906
sg20
I165
sg21
(lp1907
I65
asbag2
(g10
g4
NtRp1908
(dp1909
g13
g14
(g16
S'\x16\x00\x00\x00\x00\x00\x00\x00'
tRp1910
sg18
(lp1911
sg20
I166
sg21
(lp1912
I75
asbag2
(g10
g4
NtRp1913
(dp1914
g13
g14
(g16
S'\x16\x00\x00\x00\x00\x00\x00\x00'
tRp1915
sg18
(lp1916
sg20
I167
sg21
(lp1917
I64
asbag2
(g10
g4
NtRp1918
(dp1919
g13
g14
(g16
S'\x18\x00\x00\x00\x00\x00\x00\x00'
tRp1920
sg18
(lp1921
sg20
I168
sg21
(lp1922
I71
aI76
asbag2
(g10
g4
NtRp1923
(dp1924
g13
g14
(g16
S'\x14\x00\x00\x00\x00\x00\x00\x00'
tRp1925
sg18
(lp1926
sg20
I169
sg21
(lp1927
I68
asbag2
(g10
g4
NtRp1928
(dp1929
g13
g14
(g16
S'\x15\x00\x00\x00\x00\x00\x00\x00'
tRp1930
sg18
(lp1931
sg20
I170
sg21
(lp1932
I69
aI73
asbag2
(g10
g4
NtRp1933
(dp1934
g13
g14
(g16
S'\x17\x00\x00\x00\x00\x00\x00\x00'
tRp1935
sg18
(lp1936
sg20
I171
sg21
(lp1937
I63
aI68
asbag2
(g10
g4
NtRp1938
(dp1939
g13
g14
(g16
S'\x16\x00\x00\x00\x00\x00\x00\x00'
tRp1940
sg18
(lp1941
sg20
I172
sg21
(lp1942
I74
asbag2
(g10
g4
NtRp1943
(dp1944
g13
g14
(g16
S'\x12\x00\x00\x00\x00\x00\x00\x00'
tRp1945
sg18
(lp1946
sg20
I173
sg21
(lp1947
I67
aI73
aI74
asbag2
(g10
g4
NtRp1948
(dp1949
g13
g14
(g16
S'\x14\x00\x00\x00\x00\x00\x00\x00'
tRp1950
sg18
(lp1951
sg20
I174
sg21
(lp1952
I65
aI66
aI68
aI71
aI74
asbag2
(g10
g4
NtRp1953
(dp1954
g13
g14
(g16
S'\x14\x00\x00\x00\x00\x00\x00\x00'
tRp1955
sg18
(lp1956
sg20
I175
sg21
(lp1957
I58
aI65
aI66
asbag2
(g10
g4
NtRp1958
(dp1959
g13
g14
(g16
S'\x18\x00\x00\x00\x00\x00\x00\x00'
tRp1960
sg18
(lp1961
sg20
I176
sg21
(lp1962
I60
aI61
aI67
asbag2
(g10
g4
NtRp1963
(dp1964
g13
g14
(g16
S'\x16\x00\x00\x00\x00\x00\x00\x00'
tRp1965
sg18
(lp1966
sg20
I177
sg21
(lp1967
I72
aI77
aI83
aI84
asbag2
(g10
g4
NtRp1968
(dp1969
g13
g14
(g16
S'\x15\x00\x00\x00\x00\x00\x00\x00'
tRp1970
sg18
(lp1971
sg20
I178
sg21
(lp1972
I58
aI64
asbag2
(g10
g4
NtRp1973
(dp1974
g13
g14
(g16
S'\x13\x00\x00\x00\x00\x00\x00\x00'
tRp1975
sg18
(lp1976
sg20
I179
sg21
(lp1977
I68
aI73
aI74
aI81
asbag2
(g10
g4
NtRp1978
(dp1979
g13
g14
(g16
S'\x14\x00\x00\x00\x00\x00\x00\x00'
tRp1980
sg18
(lp1981
sg20
I180
sg21
(lp1982
I69
aI73
aI78
asbag2
(g10
g4
NtRp1983
(dp1984
g13
g14
(g16
S'\x16\x00\x00\x00\x00\x00\x00\x00'
tRp1985
sg18
(lp1986
sg20
I181
sg21
(lp1987
I67
aI75
asbag2
(g10
g4
NtRp1988
(dp1989
g13
g14
(g16
S'\x15\x00\x00\x00\x00\x00\x00\x00'
tRp1990
sg18
(lp1991
sg20
I182
sg21
(lp1992
I67
aI71
aI74
asbag2
(g10
g4
NtRp1993
(dp1994
g13
g14
(g16
S'\x14\x00\x00\x00\x00\x00\x00\x00'
tRp1995
sg18
(lp1996
sg20
I183
sg21
(lp1997
I66
aI67
aI70
aI75
asbag2
(g10
g4
NtRp1998
(dp1999
g13
g14
(g16
S'\x15\x00\x00\x00\x00\x00\x00\x00'
tRp2000
sg18
(lp2001
sg20
I184
sg21
(lp2002
I63
aI80
aI86
asbag2
(g10
g4
NtRp2003
(dp2004
g13
g14
(g16
S'\x14\x00\x00\x00\x00\x00\x00\x00'
tRp2005
sg18
(lp2006
sg20
I185
sg21
(lp2007
I64
aI70
aI76
aI79
asbag2
(g10
g4
NtRp2008
(dp2009
g13
g14
(g16
S'\x19\x00\x00\x00\x00\x00\x00\x00'
tRp2010
sg18
(lp2011
sg20
I186
sg21
(lp2012
I55
aI69
aI75
aI77
asbag2
(g10
g4
NtRp2013
(dp2014
g13
g14
(g16
S'\x15\x00\x00\x00\x00\x00\x00\x00'
tRp2015
sg18
(lp2016
sg20
I187
sg21
(lp2017
I56
aI61
aI69
aI70
aI71
asbag2
(g10
g4
NtRp2018
(dp2019
g13
g14
(g16
S'\x13\x00\x00\x00\x00\x00\x00\x00'
tRp2020
sg18
(lp2021
sg20
I188
sg21
(lp2022
I57
aI73
asbag2
(g10
g4
NtRp2023
(dp2024
g13
g14
(g16
S'\x14\x00\x00\x00\x00\x00\x00\x00'
tRp2025
sg18
(lp2026
sg20
I189
sg21
(lp2027
I52
aI69
aI74
asbag2
(g10
g4
NtRp2028
(dp2029
g13
g14
(g16
S'\x14\x00\x00\x00\x00\x00\x00\x00'
tRp2030
sg18
(lp2031
sg20
I190
sg21
(lp2032
I56
aI68
aI69
asbag2
(g10
g4
NtRp2033
(dp2034
g13
g14
(g16
S'\x15\x00\x00\x00\x00\x00\x00\x00'
tRp2035
sg18
(lp2036
sg20
I191
sg21
(lp2037
I62
aI75
aI80
aI81
asbag2
(g10
g4
NtRp2038
(dp2039
g13
g14
(g16
S'\x16\x00\x00\x00\x00\x00\x00\x00'
tRp2040
sg18
(lp2041
sg20
I192
sg21
(lp2042
I60
aI68
aI70
aI74
aI75
asbag2
(g10
g4
NtRp2043
(dp2044
g13
g14
(g16
S'\x14\x00\x00\x00\x00\x00\x00\x00'
tRp2045
sg18
(lp2046
sg20
I193
sg21
(lp2047
I59
aI62
aI66
aI68
asbag2
(g10
g4
NtRp2048
(dp2049
g13
g14
(g16
S'\x17\x00\x00\x00\x00\x00\x00\x00'
tRp2050
sg18
(lp2051
sg20
I194
sg21
(lp2052
I63
aI71
aI76
aI78
asbag2
(g10
g4
NtRp2053
(dp2054
g13
g14
(g16
S'\x18\x00\x00\x00\x00\x00\x00\x00'
tRp2055
sg18
(lp2056
sg20
I195
sg21
(lp2057
I61
aI66
aI71
aI73
aI77
aI80
asbag2
(g10
g4
NtRp2058
(dp2059
g13
g14
(g16
S'\x17\x00\x00\x00\x00\x00\x00\x00'
tRp2060
sg18
(lp2061
sg20
I196
sg21
(lp2062
I74
aI76
aI80
aI83
aI84
asbag2
(g10
g4
NtRp2063
(dp2064
g13
g14
(g16
S'\x15\x00\x00\x00\x00\x00\x00\x00'
tRp2065
sg18
(lp2066
sg20
I197
sg21
(lp2067
I53
aI58
aI64
aI67
aI70
asbag2
(g10
g4
NtRp2068
(dp2069
g13
g14
(g16
S'\x13\x00\x00\x00\x00\x00\x00\x00'
tRp2070
sg18
(lp2071
sg20
I198
sg21
(lp2072
I51
aI58
aI66
aI67
asbag2
(g10
g4
NtRp2073
(dp2074
g13
g14
(g16
S'\x12\x00\x00\x00\x00\x00\x00\x00'
tRp2075
sg18
(lp2076
sg20
I199
sg21
(lp2077
I54
aI62
aI69
aI71
aI73
aI76
asbag2
(g10
g4
NtRp2078
(dp2079
g13
g14
(g16
S'\x13\x00\x00\x00\x00\x00\x00\x00'
tRp2080
sg18
(lp2081
sg20
I200
sg21
(lp2082
I46
aI54
aI64
aI66
aI68
aI70
asbag2
(g10
g4
NtRp2083
(dp2084
g13
g14
(g16
S'\x15\x00\x00\x00\x00\x00\x00\x00'
tRp2085
sg18
(lp2086
sg20
I201
sg21
(lp2087
I48
aI55
aI66
asbag2
(g10
g4
NtRp2088
(dp2089
g13
g14
(g16
S'\x18\x00\x00\x00\x00\x00\x00\x00'
tRp2090
sg18
(lp2091
sg20
I202
sg21
(lp2092
I54
aI58
aI63
aI67
aI70
aI73
asbag2
(g10
g4
NtRp2093
(dp2094
g13
g14
(g16
S'\x14\x00\x00\x00\x00\x00\x00\x00'
tRp2095
sg18
(lp2096
sg20
I203
sg21
(lp2097
I52
aI56
aI66
aI67
aI71
aI74
asbag2
(g10
g4
NtRp2098
(dp2099
g13
g14
(g16
S'\x16\x00\x00\x00\x00\x00\x00\x00'
tRp2100
sg18
(lp2101
sg20
I204
sg21
(lp2102
I52
aI58
aI60
aI67
aI68
asbag2
(g10
g4
NtRp2103
(dp2104
g13
g14
(g16
S'\x15\x00\x00\x00\x00\x00\x00\x00'
tRp2105
sg18
(lp2106
sg20
I205
sg21
(lp2107
I46
aI53
aI54
aI57
aI61
asbag2
(g10
g4
NtRp2108
(dp2109
g13
g14
(g16
S'\x16\x00\x00\x00\x00\x00\x00\x00'
tRp2110
sg18
(lp2111
sg20
I206
sg21
(lp2112
I58
aI61
aI77
aI80
asbag2
(g10
g4
NtRp2113
(dp2114
g13
g14
(g16
S'\x17\x00\x00\x00\x00\x00\x00\x00'
tRp2115
sg18
(lp2116
sg20
I207
sg21
(lp2117
I57
aI60
aI63
aI69
aI73
asbag2
(g10
g4
NtRp2118
(dp2119
g13
g14
(g16
S'\x14\x00\x00\x00\x00\x00\x00\x00'
tRp2120
sg18
(lp2121
sg20
I208
sg21
(lp2122
I53
aI60
aI61
aI66
aI68
asbag2
(g10
g4
NtRp2123
(dp2124
g13
g14
(g16
S'\x15\x00\x00\x00\x00\x00\x00\x00'
tRp2125
sg18
(lp2126
sg20
I209
sg21
(lp2127
I64
aI65
aI69
aI70
aI74
aI75
asbag2
(g10
g4
NtRp2128
(dp2129
g13
g14
(g16
S'\x17\x00\x00\x00\x00\x00\x00\x00'
tRp2130
sg18
(lp2131
sg20
I210
sg21
(lp2132
I55
aI57
aI63
aI64
aI65
asbag2
(g10
g4
NtRp2133
(dp2134
g13
g14
(g16
S'\x16\x00\x00\x00\x00\x00\x00\x00'
tRp2135
sg18
(lp2136
sg20
I211
sg21
(lp2137
I55
aI57
aI64
aI69
aI71
asbag2
(g10
g4
NtRp2138
(dp2139
g13
g14
(g16
S'\x16\x00\x00\x00\x00\x00\x00\x00'
tRp2140
sg18
(lp2141
sg20
I212
sg21
(lp2142
I58
aI61
aI63
aI66
aI68
asbag2
(g10
g4
NtRp2143
(dp2144
g13
g14
(g16
S'\x16\x00\x00\x00\x00\x00\x00\x00'
tRp2145
sg18
(lp2146
sg20
I213
sg21
(lp2147
I51
aI57
aI59
aI61
aI64
aI66
aI67
asbag2
(g10
g4
NtRp2148
(dp2149
g13
g14
(g16
S'\x17\x00\x00\x00\x00\x00\x00\x00'
tRp2150
sg18
(lp2151
sg20
I214
sg21
(lp2152
I54
aI61
aI64
aI65
aI67
aI70
asbag2
(g10
g4
NtRp2153
(dp2154
g13
g14
(g16
S'\x15\x00\x00\x00\x00\x00\x00\x00'
tRp2155
sg18
(lp2156
sg20
I215
sg21
(lp2157
I53
aI59
aI67
aI70
aI71
asbag2
(g10
g4
NtRp2158
(dp2159
g13
g14
(g16
S'\x14\x00\x00\x00\x00\x00\x00\x00'
tRp2160
sg18
(lp2161
sg20
I216
sg21
(lp2162
I55
aI61
aI65
aI67
aI68
aI71
asbag2
(g10
g4
NtRp2163
(dp2164
g13
g14
(g16
S'\x14\x00\x00\x00\x00\x00\x00\x00'
tRp2165
sg18
(lp2166
sg20
I217
sg21
(lp2167
I60
aI63
aI72
aI75
aI76
asbag2
(g10
g4
NtRp2168
(dp2169
g13
g14
(g16
S'\x12\x00\x00\x00\x00\x00\x00\x00'
tRp2170
sg18
(lp2171
sg20
I218
sg21
(lp2172
I49
aI53
aI62
aI63
asbag2
(g10
g4
NtRp2173
(dp2174
g13
g14
(g16
S'\x14\x00\x00\x00\x00\x00\x00\x00'
tRp2175
sg18
(lp2176
sg20
I219
sg21
(lp2177
I53
aI58
aI62
aI64
aI65
asbag2
(g10
g4
NtRp2178
(dp2179
g13
g14
(g16
S'\x14\x00\x00\x00\x00\x00\x00\x00'
tRp2180
sg18
(lp2181
sg20
I220
sg21
(lp2182
I55
aI60
aI63
aI68
aI69
asbag2
(g10
g4
NtRp2183
(dp2184
g13
g14
(g16
S'\x13\x00\x00\x00\x00\x00\x00\x00'
tRp2185
sg18
(lp2186
sg20
I221
sg21
(lp2187
I55
aI62
aI66
aI70
aI72
asbag2
(g10
g4
NtRp2188
(dp2189
g13
g14
(g16
S'\x16\x00\x00\x00\x00\x00\x00\x00'
tRp2190
sg18
(lp2191
sg20
I222
sg21
(lp2192
I65
aI66
aI70
aI71
aI73
asbag2
(g10
g4
NtRp2193
(dp2194
g13
g14
(g16
S'\x12\x00\x00\x00\x00\x00\x00\x00'
tRp2195
sg18
(lp2196
sg20
I223
sg21
(lp2197
I52
aI53
aI63
aI64
aI66
asbag2
(g10
g4
NtRp2198
(dp2199
g13
g14
(g16
S'\x14\x00\x00\x00\x00\x00\x00\x00'
tRp2200
sg18
(lp2201
sg20
I224
sg21
(lp2202
I57
aI61
aI70
aI75
asbag2
(g10
g4
NtRp2203
(dp2204
g13
g14
(g16
S'\x12\x00\x00\x00\x00\x00\x00\x00'
tRp2205
sg18
(lp2206
sg20
I225
sg21
(lp2207
I57
aI58
aI69
aI71
asbag2
(g10
g4
NtRp2208
(dp2209
g13
g14
(g16
S'\x12\x00\x00\x00\x00\x00\x00\x00'
tRp2210
sg18
(lp2211
sg20
I226
sg21
(lp2212
I59
aI61
aI73
aI74
asbag2
(g10
g4
NtRp2213
(dp2214
g13
g14
(g16
S'\x11\x00\x00\x00\x00\x00\x00\x00'
tRp2215
sg18
(lp2216
sg20
I227
sg21
(lp2217
I52
aI54
aI66
asbag2
(g10
g4
NtRp2218
(dp2219
g13
g14
(g16
S'\x12\x00\x00\x00\x00\x00\x00\x00'
tRp2220
sg18
(lp2221
sg20
I228
sg21
(lp2222
I59
aI61
aI69
asbag2
(g10
g4
NtRp2223
(dp2224
g13
g14
(g16
S'\x18\x00\x00\x00\x00\x00\x00\x00'
tRp2225
sg18
(lp2226
sg20
I229
sg21
(lp2227
I64
aI67
aI75
asbag2
(g10
g4
NtRp2228
(dp2229
g13
g14
(g16
S'\x17\x00\x00\x00\x00\x00\x00\x00'
tRp2230
sg18
(lp2231
sg20
I230
sg21
(lp2232
I61
aI63
aI71
asbag2
(g10
g4
NtRp2233
(dp2234
g13
g14
(g16
S'\x17\x00\x00\x00\x00\x00\x00\x00'
tRp2235
sg18
(lp2236
sg20
I231
sg21
(lp2237
I60
aI65
asbag2
(g10
g4
NtRp2238
(dp2239
g13
g14
(g16
S'\x13\x00\x00\x00\x00\x00\x00\x00'
tRp2240
sg18
(lp2241
sg20
I232
sg21
(lp2242
I63
aI64
aI72
asbag2
(g10
g4
NtRp2243
(dp2244
g13
g14
(g16
S'\x17\x00\x00\x00\x00\x00\x00\x00'
tRp2245
sg18
(lp2246
sg20
I233
sg21
(lp2247
I66
aI72
aI77
asbag2
(g10
g4
NtRp2248
(dp2249
g13
g14
(g16
S'\x13\x00\x00\x00\x00\x00\x00\x00'
tRp2250
sg18
(lp2251
sg20
I234
sg21
(lp2252
I56
aI59
aI65
asbag2
(g10
g4
NtRp2253
(dp2254
g13
g14
(g16
S'\x12\x00\x00\x00\x00\x00\x00\x00'
tRp2255
sg18
(lp2256
sg20
I235
sg21
(lp2257
I55
aI57
aI62
asbag2
(g10
g4
NtRp2258
(dp2259
g13
g14
(g16
S'\x14\x00\x00\x00\x00\x00\x00\x00'
tRp2260
sg18
(lp2261
sg20
I236
sg21
(lp2262
I62
aI63
aI65
aI68
asbag2
(g10
g4
NtRp2263
(dp2264
g13
g14
(g16
S'\x14\x00\x00\x00\x00\x00\x00\x00'
tRp2265
sg18
(lp2266
sg20
I237
sg21
(lp2267
I60
aI63
aI65
aI67
aI74
asbag2
(g10
g4
NtRp2268
(dp2269
g13
g14
(g16
S'\x15\x00\x00\x00\x00\x00\x00\x00'
tRp2270
sg18
(lp2271
sg20
I238
sg21
(lp2272
I58
aI60
aI65
aI70
asbag2
(g10
g4
NtRp2273
(dp2274
g13
g14
(g16
S'\x13\x00\x00\x00\x00\x00\x00\x00'
tRp2275
sg18
(lp2276
sg20
I239
sg21
(lp2277
I61
aI65
aI70
aI73
asbasg118
I0
sbtp2278
a(S'r'
g2
(g3
g4
NtRp2279
(dp2280
g7
I16
sg8
(lp2281
g2
(g10
g4
NtRp2282
(dp2283
g13
g14
(g16
S')\x00\x00\x00\x00\x00\x00\x00'
tRp2284
sg18
(lp2285
sg20
I0
sg21
(lp2286
I117
aI122
aI126
aI129
aI130
asbag2
(g10
g4
NtRp2287
(dp2288
g13
g14
(g16
S'&\x00\x00\x00\x00\x00\x00\x00'
tRp2289
sg18
(lp2290
sg20
I1
sg21
(lp2291
I108
aI120
asbag2
(g10
g4
NtRp2292
(dp2293
g13
g14
(g16
S'$\x00\x00\x00\x00\x00\x00\x00'
tRp2294
sg18
(lp2295
sg20
I2
sg21
(lp2296
I103
aI104
aI115
asbag2
(g10
g4
NtRp2297
(dp2298
g13
g14
(g16
S' \x00\x00\x00\x00\x00\x00\x00'
tRp2299
sg18
(lp2300
sg20
I3
sg21
(lp2301
I93
aI94
aI108
asbag2
(g10
g4
NtRp2302
(dp2303
g13
g14
(g16
S'!\x00\x00\x00\x00\x00\x00\x00'
tRp2304
sg18
(lp2305
sg20
I4
sg21
(lp2306
I109
aI118
aI126
asbag2
(g10
g4
NtRp2307
(dp2308
g13
g14
(g16
S' \x00\x00\x00\x00\x00\x00\x00'
tRp2309
sg18
(lp2310
sg20
I5
sg21
(lp2311
I116
aI126
asbag2
(g10
g4
NtRp2312
(dp2313
g13
g14
(g16
S'"\x00\x00\x00\x00\x00\x00\x00'
tRp2314
sg18
(lp2315
sg20
I6
sg21
(lp2316
I108
aI110
aI117
aI123
asbag2
(g10
g4
NtRp2317
(dp2318
g13
g14
(g16
S'\x1f\x00\x00\x00\x00\x00\x00\x00'
tRp2319
sg18
(lp2320
sg20
I7
sg21
(lp2321
I93
aI107
asbag2
(g10
g4
NtRp2322
(dp2323
g13
g14
(g16
S'\x1c\x00\x00\x00\x00\x00\x00\x00'
tRp2324
sg18
(lp2325
sg20
I8
sg21
(lp2326
sbag2
(g10
g4
NtRp2327
(dp2328
g13
g14
(g16
S'\x1f\x00\x00\x00\x00\x00\x00\x00'
tRp2329
sg18
(lp2330
sg20
I9
sg21
(lp2331
I97
aI100
asbag2
(g10
g4
NtRp2332
(dp2333
g13
g14
(g16
S'\x1e\x00\x00\x00\x00\x00\x00\x00'
tRp2334
sg18
(lp2335
sg20
I10
sg21
(lp2336
I104
aI106
aI113
asbag2
(g10
g4
NtRp2337
(dp2338
g13
g14
(g16
S'\x17\x00\x00\x00\x00\x00\x00\x00'
tRp2339
sg18
(lp2340
sg20
I11
sg21
(lp2341
I101
aI107
aI112
asbag2
(g10
g4
NtRp2342
(dp2343
g13
g14
(g16
S'\x1b\x00\x00\x00\x00\x00\x00\x00'
tRp2344
sg18
(lp2345
sg20
I12
sg21
(lp2346
I103
aI104
aI106
asbag2
(g10
g4
NtRp2347
(dp2348
g13
g14
(g16
S'\x1d\x00\x00\x00\x00\x00\x00\x00'
tRp2349
sg18
(lp2350
sg20
I13
sg21
(lp2351
I100
aI103
aI107
asbag2
(g10
g4
NtRp2352
(dp2353
g13
g14
(g16
S'\x1f\x00\x00\x00\x00\x00\x00\x00'
tRp2354
sg18
(lp2355
sg20
I14
sg21
(lp2356
I94
aI95
aI100
asbag2
(g10
g4
NtRp2357
(dp2358
g13
g14
(g16
S'\x1e\x00\x00\x00\x00\x00\x00\x00'
tRp2359
sg18
(lp2360
sg20
I15
sg21
(lp2361
I98
aI103
aI108
asbag2
(g10
g4
NtRp2362
(dp2363
g13
g14
(g16
S'\x1f\x00\x00\x00\x00\x00\x00\x00'
tRp2364
sg18
(lp2365
sg20
I16
sg21
(lp2366
I84
aI90
aI95
asbasg118
I0
sbtp2367
a(S'm'
g2
(g3
g4
NtRp2368
(dp2369
g7
I9
sg8
(lp2370
g2
(g10
g4
NtRp2371
(dp2372
g13
g14
(g16
S'*\x00\x00\x00\x00\x00\x00\x00'
tRp2373
sg18
(lp2374
sg20
I0
sg21
(lp2375
I133
ag14
(g16
S'h\x00\x00\x00\x00\x00\x00\x00'
tRp2376
asbag2
(g10
g4
NtRp2377
(dp2378
g13
g14
(g16
S"'\x00\x00\x00\x00\x00\x00\x00"
tRp2379
sg18
(lp2380
sg20
I1
sg21
(lp2381
I113
ag14
(g16
S'p\x00\x00\x00\x00\x00\x00\x00'
tRp2382
asbag2
(g10
g4
NtRp2383
(dp2384
g13
g14
(g16
S'%\x00\x00\x00\x00\x00\x00\x00'
tRp2385
sg18
(lp2386
sg20
I2
sg21
(lp2387
I113
aI118
ag14
(g16
S'm\x00\x00\x00\x00\x00\x00\x00'
tRp2388
asbag2
(g10
g4
NtRp2389
(dp2390
g13
g14
(g16
S'!\x00\x00\x00\x00\x00\x00\x00'
tRp2391
sg18
(lp2392
sg20
I3
sg21
(lp2393
I103
aI111
ag14
(g16
S'a\x00\x00\x00\x00\x00\x00\x00'
tRp2394
asbag2
(g10
g4
NtRp2395
(dp2396
g13
g14
(g16
S'"\x00\x00\x00\x00\x00\x00\x00'
tRp2397
sg18
(lp2398
sg20
I4
sg21
(lp2399
I98
aI119
ag14
(g16
S'q\x00\x00\x00\x00\x00\x00\x00'
tRp2400
asbag2
(g10
g4
NtRp2401
(dp2402
g13
g14
(g16
S'!\x00\x00\x00\x00\x00\x00\x00'
tRp2403
sg18
(lp2404
sg20
I5
sg21
(lp2405
I102
aI119
ag14
(g16
S'p\x00\x00\x00\x00\x00\x00\x00'
tRp2406
asbag2
(g10
g4
NtRp2407
(dp2408
g13
g14
(g16
S' \x00\x00\x00\x00\x00\x00\x00'
tRp2409
sg18
(lp2410
sg20
I6
sg21
(lp2411
I98
aI116
ag14
(g16
S'i\x00\x00\x00\x00\x00\x00\x00'
tRp2412
asbag2
(g10
g4
NtRp2413
(dp2414
g13
g14
(g16
S'\x1d\x00\x00\x00\x00\x00\x00\x00'
tRp2415
sg18
(lp2416
sg20
I7
sg21
(lp2417
I82
aI100
aI105
ag14
(g16
S'Z\x00\x00\x00\x00\x00\x00\x00'
tRp2418
asbag2
(g10
g4
NtRp2419
(dp2420
g13
g14
(g16
S'\x1a\x00\x00\x00\x00\x00\x00\x00'
tRp2421
sg18
(lp2422
sg20
I8
sg21
(lp2423
I73
aI84
aI87
aI88
aI90
asbag2
(g10
g4
NtRp2424
(dp2425
g13
g14
(g16
S'\x1c\x00\x00\x00\x00\x00\x00\x00'
tRp2426
sg18
(lp2427
sg20
I9
sg21
(lp2428
I85
aI103
aI105
aI109
asbasg118
I0
sbtp2429
a(S'r'
g2
(g3
g4
NtRp2430
(dp2431
g7
I30
sg8
(lp2432
g2
(g10
g4
NtRp2433
(dp2434
g13
g14
(g16
S'.\x00\x00\x00\x00\x00\x00\x00'
tRp2435
sg18
(lp2436
sg20
I0
sg21
(lp2437
I136
aI142
aI145
asbag2
(g10
g4
NtRp2438
(dp2439
g13
g14
(g16
S'*\x00\x00\x00\x00\x00\x00\x00'
tRp2440
sg18
(lp2441
sg20
I1
sg21
(lp2442
I125
aI126
aI135
asbag2
(g10
g4
NtRp2443
(dp2444
g13
g14
(g16
S'(\x00\x00\x00\x00\x00\x00\x00'
tRp2445
sg18
(lp2446
sg20
I2
sg21
(lp2447
I120
aI121
aI126
asbag2
(g10
g4
NtRp2448
(dp2449
g13
g14
(g16
S'&\x00\x00\x00\x00\x00\x00\x00'
tRp2450
sg18
(lp2451
sg20
I3
sg21
(lp2452
I114
aI119
asbag2
(g10
g4
NtRp2453
(dp2454
g13
g14
(g16
S'&\x00\x00\x00\x00\x00\x00\x00'
tRp2455
sg18
(lp2456
sg20
I4
sg21
(lp2457
I129
aI134
asbag2
(g10
g4
NtRp2458
(dp2459
g13
g14
(g16
S'$\x00\x00\x00\x00\x00\x00\x00'
tRp2460
sg18
(lp2461
sg20
I5
sg21
(lp2462
I129
aI130
aI135
asbag2
(g10
g4
NtRp2463
(dp2464
g13
g14
(g16
S'%\x00\x00\x00\x00\x00\x00\x00'
tRp2465
sg18
(lp2466
sg20
I6
sg21
(lp2467
I125
aI130
asbag2
(g10
g4
NtRp2468
(dp2469
g13
g14
(g16
S'!\x00\x00\x00\x00\x00\x00\x00'
tRp2470
sg18
(lp2471
sg20
I7
sg21
(lp2472
I109
aI114
asbag2
(g10
g4
NtRp2473
(dp2474
g13
g14
(g16
S'\x1e\x00\x00\x00\x00\x00\x00\x00'
tRp2475
sg18
(lp2476
sg20
I8
sg21
(lp2477
I94
aI96
aI100
asbag2
(g10
g4
NtRp2478
(dp2479
g13
g14
(g16
S'!\x00\x00\x00\x00\x00\x00\x00'
tRp2480
sg18
(lp2481
sg20
I9
sg21
(lp2482
I107
aI115
asbag2
(g10
g4
NtRp2483
(dp2484
g13
g14
(g16
S' \x00\x00\x00\x00\x00\x00\x00'
tRp2485
sg18
(lp2486
sg20
I10
sg21
(lp2487
I115
aI122
asbag2
(g10
g4
NtRp2488
(dp2489
g13
g14
(g16
S'\x19\x00\x00\x00\x00\x00\x00\x00'
tRp2490
sg18
(lp2491
sg20
I11
sg21
(lp2492
I116
asbag2
(g10
g4
NtRp2493
(dp2494
g13
g14
(g16
S'\x1d\x00\x00\x00\x00\x00\x00\x00'
tRp2495
sg18
(lp2496
sg20
I12
sg21
(lp2497
sbag2
(g10
g4
NtRp2498
(dp2499
g13
g14
(g16
S' \x00\x00\x00\x00\x00\x00\x00'
tRp2500
sg18
(lp2501
sg20
I13
sg21
(lp2502
I111
asbag2
(g10
g4
NtRp2503
(dp2504
g13
g14
(g16
S'"\x00\x00\x00\x00\x00\x00\x00'
tRp2505
sg18
(lp2506
sg20
I14
sg21
(lp2507
I106
aI107
asbag2
(g10
g4
NtRp2508
(dp2509
g13
g14
(g16
S'!\x00\x00\x00\x00\x00\x00\x00'
tRp2510
sg18
(lp2511
sg20
I15
sg21
(lp2512
I111
aI113
asbag2
(g10
g4
NtRp2513
(dp2514
g13
g14
(g16
S'!\x00\x00\x00\x00\x00\x00\x00'
tRp2515
sg18
(lp2516
sg20
I16
sg21
(lp2517
sbag2
(g10
g4
NtRp2518
(dp2519
g13
g14
(g16
S'"\x00\x00\x00\x00\x00\x00\x00'
tRp2520
sg18
(lp2521
sg20
I17
sg21
(lp2522
sbag2
(g10
g4
NtRp2523
(dp2524
g13
g14
(g16
S'\x1e\x00\x00\x00\x00\x00\x00\x00'
tRp2525
sg18
(lp2526
sg20
I18
sg21
(lp2527
I116
asbag2
(g10
g4
NtRp2528
(dp2529
g13
g14
(g16
S'"\x00\x00\x00\x00\x00\x00\x00'
tRp2530
sg18
(lp2531
sg20
I19
sg21
(lp2532
I125
aI127
asbag2
(g10
g4
NtRp2533
(dp2534
g13
g14
(g16
S'\x1e\x00\x00\x00\x00\x00\x00\x00'
tRp2535
sg18
(lp2536
sg20
I20
sg21
(lp2537
I109
aI112
asbag2
(g10
g4
NtRp2538
(dp2539
g13
g14
(g16
S'\x1f\x00\x00\x00\x00\x00\x00\x00'
tRp2540
sg18
(lp2541
sg20
I21
sg21
(lp2542
I119
asbag2
(g10
g4
NtRp2543
(dp2544
g13
g14
(g16
S'"\x00\x00\x00\x00\x00\x00\x00'
tRp2545
sg18
(lp2546
sg20
I22
sg21
(lp2547
sbag2
(g10
g4
NtRp2548
(dp2549
g13
g14
(g16
S'\x1e\x00\x00\x00\x00\x00\x00\x00'
tRp2550
sg18
(lp2551
sg20
I23
sg21
(lp2552
sbag2
(g10
g4
NtRp2553
(dp2554
g13
g14
(g16
S'\x1e\x00\x00\x00\x00\x00\x00\x00'
tRp2555
sg18
(lp2556
sg20
I24
sg21
(lp2557
sbag2
(g10
g4
NtRp2558
(dp2559
g13
g14
(g16
S'\x1e\x00\x00\x00\x00\x00\x00\x00'
tRp2560
sg18
(lp2561
sg20
I25
sg21
(lp2562
sbag2
(g10
g4
NtRp2563
(dp2564
g13
g14
(g16
S'\x1f\x00\x00\x00\x00\x00\x00\x00'
tRp2565
sg18
(lp2566
sg20
I26
sg21
(lp2567
I101
asbag2
(g10
g4
NtRp2568
(dp2569
g13
g14
(g16
S'\x1d\x00\x00\x00\x00\x00\x00\x00'
tRp2570
sg18
(lp2571
sg20
I27
sg21
(lp2572
I93
aI95
asbag2
(g10
g4
NtRp2573
(dp2574
g13
g14
(g16
S'\x1f\x00\x00\x00\x00\x00\x00\x00'
tRp2575
sg18
(lp2576
sg20
I28
sg21
(lp2577
I105
aI109
asbag2
(g10
g4
NtRp2578
(dp2579
g13
g14
(g16
S'!\x00\x00\x00\x00\x00\x00\x00'
tRp2580
sg18
(lp2581
sg20
I29
sg21
(lp2582
I107
ag14
(g16
S'n\x00\x00\x00\x00\x00\x00\x00'
tRp2583
asbag2
(g10
g4
NtRp2584
(dp2585
g13
g14
(g16
S'\x1d\x00\x00\x00\x00\x00\x00\x00'
tRp2586
sg18
(lp2587
sg20
I30
sg21
(lp2588
I104
asbasg118
I0
sbtp2589
a(S'm'
g2
(g3
g4
NtRp2590
(dp2591
g7
I8
sg8
(lp2592
g2
(g10
g4
NtRp2593
(dp2594
g13
g14
(g16
S'1\x00\x00\x00\x00\x00\x00\x00'
tRp2595
sg18
(lp2596
sg20
I0
sg21
(lp2597
I163
asbag2
(g10
g4
NtRp2598
(dp2599
g13
g14
(g16
S'/\x00\x00\x00\x00\x00\x00\x00'
tRp2600
sg18
(lp2601
sg20
I1
sg21
(lp2602
I153
asbag2
(g10
g4
NtRp2603
(dp2604
g13
g14
(g16
S'+\x00\x00\x00\x00\x00\x00\x00'
tRp2605
sg18
(lp2606
sg20
I2
sg21
(lp2607
I144
asbag2
(g10
g4
NtRp2608
(dp2609
g13
g14
(g16
S'*\x00\x00\x00\x00\x00\x00\x00'
tRp2610
sg18
(lp2611
sg20
I3
sg21
(lp2612
I137
asbag2
(g10
g4
NtRp2613
(dp2614
g13
g14
(g16
S'*\x00\x00\x00\x00\x00\x00\x00'
tRp2615
sg18
(lp2616
sg20
I4
sg21
(lp2617
I149
asbag2
(g10
g4
NtRp2618
(dp2619
g13
g14
(g16
S'(\x00\x00\x00\x00\x00\x00\x00'
tRp2620
sg18
(lp2621
sg20
I5
sg21
(lp2622
I151
asbag2
(g10
g4
NtRp2623
(dp2624
g13
g14
(g16
S'*\x00\x00\x00\x00\x00\x00\x00'
tRp2625
sg18
(lp2626
sg20
I6
sg21
(lp2627
I142
asbag2
(g10
g4
NtRp2628
(dp2629
g13
g14
(g16
S'%\x00\x00\x00\x00\x00\x00\x00'
tRp2630
sg18
(lp2631
sg20
I7
sg21
(lp2632
I127
asbag2
(g10
g4
NtRp2633
(dp2634
g13
g14
(g16
S'"\x00\x00\x00\x00\x00\x00\x00'
tRp2635
sg18
(lp2636
sg20
I8
sg21
(lp2637
I110
asbasg118
I0
sbtp2638
a(S'm'
g2
(g3
g4
NtRp2639
(dp2640
g7
I6
sg8
(lp2641
g2
(g10
g4
NtRp2642
(dp2643
g13
g14
(g16
S'6\x00\x00\x00\x00\x00\x00\x00'
tRp2644
sg18
(lp2645
sg20
I0
sg21
(lp2646
sbag2
(g10
g4
NtRp2647
(dp2648
g13
g14
(g16
S'3\x00\x00\x00\x00\x00\x00\x00'
tRp2649
sg18
(lp2650
sg20
I1
sg21
(lp2651
sbag2
(g10
g4
NtRp2652
(dp2653
g13
g14
(g16
S'/\x00\x00\x00\x00\x00\x00\x00'
tRp2654
sg18
(lp2655
sg20
I2
sg21
(lp2656
sbag2
(g10
g4
NtRp2657
(dp2658
g13
g14
(g16
S'.\x00\x00\x00\x00\x00\x00\x00'
tRp2659
sg18
(lp2660
sg20
I3
sg21
(lp2661
I151
asbag2
(g10
g4
NtRp2662
(dp2663
g13
g14
(g16
S'.\x00\x00\x00\x00\x00\x00\x00'
tRp2664
sg18
(lp2665
sg20
I4
sg21
(lp2666
sbag2
(g10
g4
NtRp2667
(dp2668
g13
g14
(g16
S',\x00\x00\x00\x00\x00\x00\x00'
tRp2669
sg18
(lp2670
sg20
I5
sg21
(lp2671
sbag2
(g10
g4
NtRp2672
(dp2673
g13
g14
(g16
S'.\x00\x00\x00\x00\x00\x00\x00'
tRp2674
sg18
(lp2675
sg20
I6
sg21
(lp2676
I156
asbasg118
I0
sbtp2677
a(S'm'
g2
(g3
g4
NtRp2678
(dp2679
g7
I6
sg8
(lp2680
g2
(g10
g4
NtRp2681
(dp2682
g13
g14
(g16
S'7\x00\x00\x00\x00\x00\x00\x00'
tRp2683
sg18
(lp2684
sg20
I0
sg21
(lp2685
I180
aI183
asbag2
(g10
g4
NtRp2686
(dp2687
g13
g14
(g16
S'4\x00\x00\x00\x00\x00\x00\x00'
tRp2688
sg18
(lp2689
sg20
I1
sg21
(lp2690
I170
aI172
asbag2
(g10
g4
NtRp2691
(dp2692
g13
g14
(g16
S'0\x00\x00\x00\x00\x00\x00\x00'
tRp2693
sg18
(lp2694
sg20
I2
sg21
(lp2695
I164
aI165
asbag2
(g10
g4
NtRp2696
(dp2697
g13
g14
(g16
S'/\x00\x00\x00\x00\x00\x00\x00'
tRp2698
sg18
(lp2699
sg20
I3
sg21
(lp2700
I150
aI152
aI153
asbag2
(g10
g4
NtRp2701
(dp2702
g13
g14
(g16
S'/\x00\x00\x00\x00\x00\x00\x00'
tRp2703
sg18
(lp2704
sg20
I4
sg21
(lp2705
I157
aI159
asbag2
(g10
g4
NtRp2706
(dp2707
g13
g14
(g16
S'-\x00\x00\x00\x00\x00\x00\x00'
tRp2708
sg18
(lp2709
sg20
I5
sg21
(lp2710
I159
aI161
asbag2
(g10
g4
NtRp2711
(dp2712
g13
g14
(g16
S'/\x00\x00\x00\x00\x00\x00\x00'
tRp2713
sg18
(lp2714
sg20
I6
sg21
(lp2715
I155
aI158
asbasg118
I0
sbtp2716
a(S'r'
g2
(g3
g4
NtRp2717
(dp2718
g7
I29
sg8
(lp2719
g2
(g10
g4
NtRp2720
(dp2721
g13
g14
(g16
S'<\x00\x00\x00\x00\x00\x00\x00'
tRp2722
sg18
(lp2723
sg20
I0
sg21
(lp2724
I190
aI198
asbag2
(g10
g4
NtRp2725
(dp2726
g13
g14
(g16
S'9\x00\x00\x00\x00\x00\x00\x00'
tRp2727
sg18
(lp2728
sg20
I1
sg21
(lp2729
I180
aI181
aI185
asbag2
(g10
g4
NtRp2730
(dp2731
g13
g14
(g16
S'4\x00\x00\x00\x00\x00\x00\x00'
tRp2732
sg18
(lp2733
sg20
I2
sg21
(lp2734
I171
aI182
asbag2
(g10
g4
NtRp2735
(dp2736
g13
g14
(g16
S'2\x00\x00\x00\x00\x00\x00\x00'
tRp2737
sg18
(lp2738
sg20
I3
sg21
(lp2739
I160
aI164
asbag2
(g10
g4
NtRp2740
(dp2741
g13
g14
(g16
S'2\x00\x00\x00\x00\x00\x00\x00'
tRp2742
sg18
(lp2743
sg20
I4
sg21
(lp2744
I164
aI167
aI168
asbag2
(g10
g4
NtRp2745
(dp2746
g13
g14
(g16
S'0\x00\x00\x00\x00\x00\x00\x00'
tRp2747
sg18
(lp2748
sg20
I5
sg21
(lp2749
I165
aI168
aI169
aI173
asbag2
(g10
g4
NtRp2750
(dp2751
g13
g14
(g16
S'2\x00\x00\x00\x00\x00\x00\x00'
tRp2752
sg18
(lp2753
sg20
I6
sg21
(lp2754
I162
aI166
aI167
asbag2
(g10
g4
NtRp2755
(dp2756
g13
g14
(g16
S'-\x00\x00\x00\x00\x00\x00\x00'
tRp2757
sg18
(lp2758
sg20
I7
sg21
(lp2759
I140
aI145
asbag2
(g10
g4
NtRp2760
(dp2761
g13
g14
(g16
S')\x00\x00\x00\x00\x00\x00\x00'
tRp2762
sg18
(lp2763
sg20
I8
sg21
(lp2764
I121
aI125
asbag2
(g10
g4
NtRp2765
(dp2766
g13
g14
(g16
S'+\x00\x00\x00\x00\x00\x00\x00'
tRp2767
sg18
(lp2768
sg20
I9
sg21
(lp2769
I137
aI140
aI141
aI145
asbag2
(g10
g4
NtRp2770
(dp2771
g13
g14
(g16
S'*\x00\x00\x00\x00\x00\x00\x00'
tRp2772
sg18
(lp2773
sg20
I10
sg21
(lp2774
I142
aI145
aI146
aI151
asbag2
(g10
g4
NtRp2775
(dp2776
g13
g14
(g16
S'$\x00\x00\x00\x00\x00\x00\x00'
tRp2777
sg18
(lp2778
sg20
I11
sg21
(lp2779
I138
aI142
aI143
asbag2
(g10
g4
NtRp2780
(dp2781
g13
g14
(g16
S')\x00\x00\x00\x00\x00\x00\x00'
tRp2782
sg18
(lp2783
sg20
I12
sg21
(lp2784
I139
aI143
aI145
aI146
asbag2
(g10
g4
NtRp2785
(dp2786
g13
g14
(g16
S'-\x00\x00\x00\x00\x00\x00\x00'
tRp2787
sg18
(lp2788
sg20
I13
sg21
(lp2789
I134
aI140
aI141
asbag2
(g10
g4
NtRp2790
(dp2791
g13
g14
(g16
S'.\x00\x00\x00\x00\x00\x00\x00'
tRp2792
sg18
(lp2793
sg20
I14
sg21
(lp2794
I129
aI135
aI136
aI138
asbag2
(g10
g4
NtRp2795
(dp2796
g13
g14
(g16
S'+\x00\x00\x00\x00\x00\x00\x00'
tRp2797
sg18
(lp2798
sg20
I15
sg21
(lp2799
I133
aI138
aI139
asbag2
(g10
g4
NtRp2800
(dp2801
g13
g14
(g16
S',\x00\x00\x00\x00\x00\x00\x00'
tRp2802
sg18
(lp2803
sg20
I16
sg21
(lp2804
I119
aI124
aI126
aI128
aI129
asbag2
(g10
g4
NtRp2805
(dp2806
g13
g14
(g16
S',\x00\x00\x00\x00\x00\x00\x00'
tRp2807
sg18
(lp2808
sg20
I17
sg21
(lp2809
I137
aI141
aI145
asbag2
(g10
g4
NtRp2810
(dp2811
g13
g14
(g16
S'(\x00\x00\x00\x00\x00\x00\x00'
tRp2812
sg18
(lp2813
sg20
I18
sg21
(lp2814
I141
aI146
aI149
asbag2
(g10
g4
NtRp2815
(dp2816
g13
g14
(g16
S'/\x00\x00\x00\x00\x00\x00\x00'
tRp2817
sg18
(lp2818
sg20
I19
sg21
(lp2819
I155
aI164
asbag2
(g10
g4
NtRp2820
(dp2821
g13
g14
(g16
S'+\x00\x00\x00\x00\x00\x00\x00'
tRp2822
sg18
(lp2823
sg20
I20
sg21
(lp2824
I144
aI147
asbag2
(g10
g4
NtRp2825
(dp2826
g13
g14
(g16
S',\x00\x00\x00\x00\x00\x00\x00'
tRp2827
sg18
(lp2828
sg20
I21
sg21
(lp2829
I143
aI145
aI150
asbag2
(g10
g4
NtRp2830
(dp2831
g13
g14
(g16
S'.\x00\x00\x00\x00\x00\x00\x00'
tRp2832
sg18
(lp2833
sg20
I22
sg21
(lp2834
I131
aI137
aI138
aI143
asbag2
(g10
g4
NtRp2835
(dp2836
g13
g14
(g16
S'*\x00\x00\x00\x00\x00\x00\x00'
tRp2837
sg18
(lp2838
sg20
I23
sg21
(lp2839
I139
aI142
aI143
asbag2
(g10
g4
NtRp2840
(dp2841
g13
g14
(g16
S'(\x00\x00\x00\x00\x00\x00\x00'
tRp2842
sg18
(lp2843
sg20
I24
sg21
(lp2844
I129
aI130
aI131
asbag2
(g10
g4
NtRp2845
(dp2846
g13
g14
(g16
S')\x00\x00\x00\x00\x00\x00\x00'
tRp2847
sg18
(lp2848
sg20
I25
sg21
(lp2849
I120
aI121
aI123
asbag2
(g10
g4
NtRp2850
(dp2851
g13
g14
(g16
S')\x00\x00\x00\x00\x00\x00\x00'
tRp2852
sg18
(lp2853
sg20
I26
sg21
(lp2854
I124
aI125
aI127
asbag2
(g10
g4
NtRp2855
(dp2856
g13
g14
(g16
S'(\x00\x00\x00\x00\x00\x00\x00'
tRp2857
sg18
(lp2858
sg20
I27
sg21
(lp2859
I121
aI124
aI125
asbag2
(g10
g4
NtRp2860
(dp2861
g13
g14
(g16
S'(\x00\x00\x00\x00\x00\x00\x00'
tRp2862
sg18
(lp2863
sg20
I28
sg21
(lp2864
I131
aI134
asbag2
(g10
g4
NtRp2865
(dp2866
g13
g14
(g16
S'.\x00\x00\x00\x00\x00\x00\x00'
tRp2867
sg18
(lp2868
sg20
I29
sg21
(lp2869
I135
aI136
asbasg118
I0
sbtp2870
a(S'r'
g2
(g3
g4
NtRp2871
(dp2872
g7
I6
sg8
(lp2873
g2
(g10
g4
NtRp2874
(dp2875
g13
g14
(g16
S'>\x00\x00\x00\x00\x00\x00\x00'
tRp2876
sg18
(lp2877
sg20
I0
sg21
(lp2878
I202
aI203
asbag2
(g10
g4
NtRp2879
(dp2880
g13
g14
(g16
S':\x00\x00\x00\x00\x00\x00\x00'
tRp2881
sg18
(lp2882
sg20
I1
sg21
(lp2883
I188
aI189
asbag2
(g10
g4
NtRp2884
(dp2885
g13
g14
(g16
S'7\x00\x00\x00\x00\x00\x00\x00'
tRp2886
sg18
(lp2887
sg20
I2
sg21
(lp2888
I176
aI185
asbag2
(g10
g4
NtRp2889
(dp2890
g13
g14
(g16
S'3\x00\x00\x00\x00\x00\x00\x00'
tRp2891
sg18
(lp2892
sg20
I3
sg21
(lp2893
I161
aI166
aI168
aI172
asbag2
(g10
g4
NtRp2894
(dp2895
g13
g14
(g16
S'3\x00\x00\x00\x00\x00\x00\x00'
tRp2896
sg18
(lp2897
sg20
I4
sg21
(lp2898
I165
aI169
aI175
asbag2
(g10
g4
NtRp2899
(dp2900
g13
g14
(g16
S'1\x00\x00\x00\x00\x00\x00\x00'
tRp2901
sg18
(lp2902
sg20
I5
sg21
(lp2903
I166
aI170
aI172
aI178
asbag2
(g10
g4
NtRp2904
(dp2905
g13
g14
(g16
S'3\x00\x00\x00\x00\x00\x00\x00'
tRp2906
sg18
(lp2907
sg20
I6
sg21
(lp2908
I164
aI165
aI170
aI175
asbasg118
I0
sbtp2909
a(S'm'
g2
(g3
g4
NtRp2910
(dp2911
g7
I4
sg8
(lp2912
g2
(g10
g4
NtRp2913
(dp2914
g13
g14
(g16
S'@\x00\x00\x00\x00\x00\x00\x00'
tRp2915
sg18
(lp2916
sg20
I0
sg21
(lp2917
I209
aI214
aI216
asbag2
(g10
g4
NtRp2918
(dp2919
g13
g14
(g16
S'<\x00\x00\x00\x00\x00\x00\x00'
tRp2920
sg18
(lp2921
sg20
I1
sg21
(lp2922
I192
aI196
aI198
aI200
asbag2
(g10
g4
NtRp2923
(dp2924
g13
g14
(g16
S'9\x00\x00\x00\x00\x00\x00\x00'
tRp2925
sg18
(lp2926
sg20
I2
sg21
(lp2927
I186
aI193
aI194
aI198
aI199
asbag2
(g10
g4
NtRp2928
(dp2929
g13
g14
(g16
S'6\x00\x00\x00\x00\x00\x00\x00'
tRp2930
sg18
(lp2931
sg20
I3
sg21
(lp2932
I171
aI176
aI182
aI184
aI186
asbag2
(g10
g4
NtRp2933
(dp2934
g13
g14
(g16
S'7\x00\x00\x00\x00\x00\x00\x00'
tRp2935
sg18
(lp2936
sg20
I4
sg21
(lp2937
I161
aI177
aI182
aI184
asbasg118
I0
sbtp2938
a(S'r'
g2
(g3
g4
NtRp2939
(dp2940
g7
I16
sg8
(lp2941
g2
(g10
g4
NtRp2942
(dp2943
g13
g14
(g16
S'A\x00\x00\x00\x00\x00\x00\x00'
tRp2944
sg18
(lp2945
sg20
I0
sg21
(lp2946
I208
aI218
aI219
asbag2
(g10
g4
NtRp2947
(dp2948
g13
g14
(g16
S'>\x00\x00\x00\x00\x00\x00\x00'
tRp2949
sg18
(lp2950
sg20
I1
sg21
(lp2951
I191
aI201
aI203
asbag2
(g10
g4
NtRp2952
(dp2953
g13
g14
(g16
S';\x00\x00\x00\x00\x00\x00\x00'
tRp2954
sg18
(lp2955
sg20
I2
sg21
(lp2956
I189
aI200
asbag2
(g10
g4
NtRp2957
(dp2958
g13
g14
(g16
S'7\x00\x00\x00\x00\x00\x00\x00'
tRp2959
sg18
(lp2960
sg20
I3
sg21
(lp2961
I174
aI185
asbag2
(g10
g4
NtRp2962
(dp2963
g13
g14
(g16
S'5\x00\x00\x00\x00\x00\x00\x00'
tRp2964
sg18
(lp2965
sg20
I4
sg21
(lp2966
I176
aI185
asbag2
(g10
g4
NtRp2967
(dp2968
g13
g14
(g16
S'3\x00\x00\x00\x00\x00\x00\x00'
tRp2969
sg18
(lp2970
sg20
I5
sg21
(lp2971
I181
aI190
asbag2
(g10
g4
NtRp2972
(dp2973
g13
g14
(g16
S'5\x00\x00\x00\x00\x00\x00\x00'
tRp2974
sg18
(lp2975
sg20
I6
sg21
(lp2976
I176
aI185
asbag2
(g10
g4
NtRp2977
(dp2978
g13
g14
(g16
S'/\x00\x00\x00\x00\x00\x00\x00'
tRp2979
sg18
(lp2980
sg20
I7
sg21
(lp2981
I150
aI155
asbag2
(g10
g4
NtRp2982
(dp2983
g13
g14
(g16
S'+\x00\x00\x00\x00\x00\x00\x00'
tRp2984
sg18
(lp2985
sg20
I8
sg21
(lp2986
I131
aI138
asbag2
(g10
g4
NtRp2987
(dp2988
g13
g14
(g16
S'.\x00\x00\x00\x00\x00\x00\x00'
tRp2989
sg18
(lp2990
sg20
I9
sg21
(lp2991
I146
aI149
asbag2
(g10
g4
NtRp2992
(dp2993
g13
g14
(g16
S'-\x00\x00\x00\x00\x00\x00\x00'
tRp2994
sg18
(lp2995
sg20
I10
sg21
(lp2996
I153
aI158
asbag2
(g10
g4
NtRp2997
(dp2998
g13
g14
(g16
S"'\x00\x00\x00\x00\x00\x00\x00"
tRp2999
sg18
(lp3000
sg20
I11
sg21
(lp3001
I147
aI152
asbag2
(g10
g4
NtRp3002
(dp3003
g13
g14
(g16
S'+\x00\x00\x00\x00\x00\x00\x00'
tRp3004
sg18
(lp3005
sg20
I12
sg21
(lp3006
I150
aI154
asbag2
(g10
g4
NtRp3007
(dp3008
g13
g14
(g16
S'/\x00\x00\x00\x00\x00\x00\x00'
tRp3009
sg18
(lp3010
sg20
I13
sg21
(lp3011
I145
aI150
asbag2
(g10
g4
NtRp3012
(dp3013
g13
g14
(g16
S'0\x00\x00\x00\x00\x00\x00\x00'
tRp3014
sg18
(lp3015
sg20
I14
sg21
(lp3016
I141
aI146
asbag2
(g10
g4
NtRp3017
(dp3018
g13
g14
(g16
S'-\x00\x00\x00\x00\x00\x00\x00'
tRp3019
sg18
(lp3020
sg20
I15
sg21
(lp3021
I143
aI146
aI147
asbag2
(g10
g4
NtRp3022
(dp3023
g13
g14
(g16
S'.\x00\x00\x00\x00\x00\x00\x00'
tRp3024
sg18
(lp3025
sg20
I16
sg21
(lp3026
I132
aI135
asbasg118
I0
sbtp3027
a(S'r'
g2
(g3
g4
NtRp3028
(dp3029
g7
I6
sg8
(lp3030
g2
(g10
g4
NtRp3031
(dp3032
g13
g14
(g16
S'9\x00\x00\x00\x00\x00\x00\x00'
tRp3033
sg18
(lp3034
sg20
I3
sg21
(lp3035
I188
aI189
aI192
asbag2
(g10
g4
NtRp3036
(dp3037
g13
g14
(g16
S'9\x00\x00\x00\x00\x00\x00\x00'
tRp3038
sg18
(lp3039
sg20
I4
sg21
(lp3040
I186
aI189
aI190
asbag2
(g10
g4
NtRp3041
(dp3042
g13
g14
(g16
S'6\x00\x00\x00\x00\x00\x00\x00'
tRp3043
sg18
(lp3044
sg20
I5
sg21
(lp3045
I191
aI193
aI195
asbag2
(g10
g4
NtRp3046
(dp3047
g13
g14
(g16
S'8\x00\x00\x00\x00\x00\x00\x00'
tRp3048
sg18
(lp3049
sg20
I6
sg21
(lp3050
I187
aI189
aI191
asbasg118
I3
sbtp3051
a(S'm'
g2
(g3
g4
NtRp3052
(dp3053
g7
I7
sg8
(lp3054
g2
(g10
g4
NtRp3055
(dp3056
g13
g14
(g16
S'\x1a\x00\x00\x00\x00\x00\x00\x00'
tRp3057
sg18
(lp3058
sg20
I3
sg21
(lp3059
sbag2
(g10
g4
NtRp3060
(dp3061
g13
g14
(g16
S'\x1b\x00\x00\x00\x00\x00\x00\x00'
tRp3062
sg18
(lp3063
sg20
I4
sg21
(lp3064
sbag2
(g10
g4
NtRp3065
(dp3066
g13
g14
(g16
S'\x18\x00\x00\x00\x00\x00\x00\x00'
tRp3067
sg18
(lp3068
sg20
I5
sg21
(lp3069
sbag2
(g10
g4
NtRp3070
(dp3071
g13
g14
(g16
S'\x18\x00\x00\x00\x00\x00\x00\x00'
tRp3072
sg18
(lp3073
sg20
I6
sg21
(lp3074
sbag2
(g10
g4
NtRp3075
(dp3076
g13
g14
(g16
S'\x18\x00\x00\x00\x00\x00\x00\x00'
tRp3077
sg18
(lp3078
sg20
I7
sg21
(lp3079
sbasg118
I3
sbtp3080
a(S'r'
g2
(g3
g4
NtRp3081
(dp3082
g7
I13
sg8
(lp3083
g2
(g10
g4
NtRp3084
(dp3085
g13
g14
(g16
S',\x00\x00\x00\x00\x00\x00\x00'
tRp3086
sg18
(lp3087
sg20
I9
sg21
(lp3088
I142
asbag2
(g10
g4
NtRp3089
(dp3090
g13
g14
(g16
S'+\x00\x00\x00\x00\x00\x00\x00'
tRp3091
sg18
(lp3092
sg20
I10
sg21
(lp3093
I144
aI147
asbag2
(g10
g4
NtRp3094
(dp3095
g13
g14
(g16
S'%\x00\x00\x00\x00\x00\x00\x00'
tRp3096
sg18
(lp3097
sg20
I11
sg21
(lp3098
I139
aI146
asbag2
(g10
g4
NtRp3099
(dp3100
g13
g14
(g16
S'(\x00\x00\x00\x00\x00\x00\x00'
tRp3101
sg18
(lp3102
sg20
I12
sg21
(lp3103
I140
aI142
asbag2
(g10
g4
NtRp3104
(dp3105
g13
g14
(g16
S',\x00\x00\x00\x00\x00\x00\x00'
tRp3106
sg18
(lp3107
sg20
I13
sg21
(lp3108
I136
aI139
asbasg118
I9
sbtp3109
a(S'r'
g2
(g3
g4
NtRp3110
(dp3111
g7
I20
sg8
(lp3112
g2
(g10
g4
NtRp3113
(dp3114
g13
g14
(g16
S'\x12\x00\x00\x00\x00\x00\x00\x00'
tRp3115
sg18
(lp3116
sg20
I9
sg21
(lp3117
I65
aI75
asbag2
(g10
g4
NtRp3118
(dp3119
g13
g14
(g16
S'\x15\x00\x00\x00\x00\x00\x00\x00'
tRp3120
sg18
(lp3121
sg20
I10
sg21
(lp3122
I66
aI77
asbag2
(g10
g4
NtRp3123
(dp3124
g13
g14
(g16
S'\x10\x00\x00\x00\x00\x00\x00\x00'
tRp3125
sg18
(lp3126
sg20
I11
sg21
(lp3127
I64
aI77
asbag2
(g10
g4
NtRp3128
(dp3129
g13
g14
(g16
S'\x12\x00\x00\x00\x00\x00\x00\x00'
tRp3130
sg18
(lp3131
sg20
I12
sg21
(lp3132
I64
aI72
asbag2
(g10
g4
NtRp3133
(dp3134
g13
g14
(g16
S'\x14\x00\x00\x00\x00\x00\x00\x00'
tRp3135
sg18
(lp3136
sg20
I13
sg21
(lp3137
I67
aI77
asbag2
(g10
g4
NtRp3138
(dp3139
g13
g14
(g16
S'\x14\x00\x00\x00\x00\x00\x00\x00'
tRp3140
sg18
(lp3141
sg20
I14
sg21
(lp3142
I54
aI69
asbag2
(g10
g4
NtRp3143
(dp3144
g13
g14
(g16
S'\x13\x00\x00\x00\x00\x00\x00\x00'
tRp3145
sg18
(lp3146
sg20
I15
sg21
(lp3147
I64
aI75
asbag2
(g10
g4
NtRp3148
(dp3149
g13
g14
(g16
S'\x14\x00\x00\x00\x00\x00\x00\x00'
tRp3150
sg18
(lp3151
sg20
I16
sg21
(lp3152
I53
aI60
aI68
asbag2
(g10
g4
NtRp3153
(dp3154
g13
g14
(g16
S'\x16\x00\x00\x00\x00\x00\x00\x00'
tRp3155
sg18
(lp3156
sg20
I17
sg21
(lp3157
I70
aI83
asbag2
(g10
g4
NtRp3158
(dp3159
g13
g14
(g16
S'\x14\x00\x00\x00\x00\x00\x00\x00'
tRp3160
sg18
(lp3161
sg20
I18
sg21
(lp3162
I74
aI81
aI85
asbag2
(g10
g4
NtRp3163
(dp3164
g13
g14
(g16
S'\x16\x00\x00\x00\x00\x00\x00\x00'
tRp3165
sg18
(lp3166
sg20
I19
sg21
(lp3167
I78
aI81
aI93
asbag2
(g10
g4
NtRp3168
(dp3169
g13
g14
(g16
S'\x10\x00\x00\x00\x00\x00\x00\x00'
tRp3170
sg18
(lp3171
sg20
I20
sg21
(lp3172
I65
aI78
asbasg118
I9
sbtp3173
a(S'm'
g2
(g3
g4
NtRp3174
(dp3175
g7
I14
sg8
(lp3176
g2
(g10
g4
NtRp3177
(dp3178
g13
g14
(g16
S'\x1e\x00\x00\x00\x00\x00\x00\x00'
tRp3179
sg18
(lp3180
sg20
I11
sg21
(lp3181
I128
asbag2
(g10
g4
NtRp3182
(dp3183
g13
g14
(g16
S'"\x00\x00\x00\x00\x00\x00\x00'
tRp3184
sg18
(lp3185
sg20
I12
sg21
(lp3186
I124
asbag2
(g10
g4
NtRp3187
(dp3188
g13
g14
(g16
S'%\x00\x00\x00\x00\x00\x00\x00'
tRp3189
sg18
(lp3190
sg20
I13
sg21
(lp3191
I120
asbag2
(g10
g4
NtRp3192
(dp3193
g13
g14
(g16
S"'\x00\x00\x00\x00\x00\x00\x00"
tRp3194
sg18
(lp3195
sg20
I14
sg21
(lp3196
I116
asbasg118
I11
sbtp3197
a(S'm'
g2
(g3
g4
NtRp3198
(dp3199
g7
I23
sg8
(lp3200
g2
(g10
g4
NtRp3201
(dp3202
g13
g14
(g16
S'2\x00\x00\x00\x00\x00\x00\x00'
tRp3203
sg18
(lp3204
sg20
I17
sg21
(lp3205
I154
asbag2
(g10
g4
NtRp3206
(dp3207
g13
g14
(g16
S'-\x00\x00\x00\x00\x00\x00\x00'
tRp3208
sg18
(lp3209
sg20
I18
sg21
(lp3210
I158
aI161
aI162
asbag2
(g10
g4
NtRp3211
(dp3212
g13
g14
(g16
S'3\x00\x00\x00\x00\x00\x00\x00'
tRp3213
sg18
(lp3214
sg20
I19
sg21
(lp3215
I175
aI177
asbag2
(g10
g4
NtRp3216
(dp3217
g13
g14
(g16
S'/\x00\x00\x00\x00\x00\x00\x00'
tRp3218
sg18
(lp3219
sg20
I20
sg21
(lp3220
I159
aI163
asbag2
(g10
g4
NtRp3221
(dp3222
g13
g14
(g16
S'0\x00\x00\x00\x00\x00\x00\x00'
tRp3223
sg18
(lp3224
sg20
I21
sg21
(lp3225
I163
aI167
asbag2
(g10
g4
NtRp3226
(dp3227
g13
g14
(g16
S'3\x00\x00\x00\x00\x00\x00\x00'
tRp3228
sg18
(lp3229
sg20
I22
sg21
(lp3230
I152
aI156
asbag2
(g10
g4
NtRp3231
(dp3232
g13
g14
(g16
S'.\x00\x00\x00\x00\x00\x00\x00'
tRp3233
sg18
(lp3234
sg20
I23
sg21
(lp3235
I150
aI153
asbasg118
I17
sbtp3236
a(S'r'
g2
(g3
g4
NtRp3237
(dp3238
g7
I27
sg8
(lp3239
g2
(g10
g4
NtRp3240
(dp3241
g13
g14
(g16
S'#\x00\x00\x00\x00\x00\x00\x00'
tRp3242
sg18
(lp3243
sg20
I17
sg21
(lp3244
I114
aI115
asbag2
(g10
g4
NtRp3245
(dp3246
g13
g14
(g16
S'\x1f\x00\x00\x00\x00\x00\x00\x00'
tRp3247
sg18
(lp3248
sg20
I18
sg21
(lp3249
I120
aI121
aI124
asbag2
(g10
g4
NtRp3250
(dp3251
g13
g14
(g16
S'#\x00\x00\x00\x00\x00\x00\x00'
tRp3252
sg18
(lp3253
sg20
I19
sg21
(lp3254
I126
aI130
aI132
asbag2
(g10
g4
NtRp3255
(dp3256
g13
g14
(g16
S'\x1f\x00\x00\x00\x00\x00\x00\x00'
tRp3257
sg18
(lp3258
sg20
I20
sg21
(lp3259
I113
aI116
asbag2
(g10
g4
NtRp3260
(dp3261
g13
g14
(g16
S' \x00\x00\x00\x00\x00\x00\x00'
tRp3262
sg18
(lp3263
sg20
I21
sg21
(lp3264
I116
aI120
asbag2
(g10
g4
NtRp3265
(dp3266
g13
g14
(g16
S'#\x00\x00\x00\x00\x00\x00\x00'
tRp3267
sg18
(lp3268
sg20
I22
sg21
(lp3269
I114
asbag2
(g10
g4
NtRp3270
(dp3271
g13
g14
(g16
S'\x1f\x00\x00\x00\x00\x00\x00\x00'
tRp3272
sg18
(lp3273
sg20
I23
sg21
(lp3274
I112
asbag2
(g10
g4
NtRp3275
(dp3276
g13
g14
(g16
S'\x1f\x00\x00\x00\x00\x00\x00\x00'
tRp3277
sg18
(lp3278
sg20
I24
sg21
(lp3279
I103
aI104
aI107
asbag2
(g10
g4
NtRp3280
(dp3281
g13
g14
(g16
S'\x1f\x00\x00\x00\x00\x00\x00\x00'
tRp3282
sg18
(lp3283
sg20
I25
sg21
(lp3284
I102
asbag2
(g10
g4
NtRp3285
(dp3286
g13
g14
(g16
S' \x00\x00\x00\x00\x00\x00\x00'
tRp3287
sg18
(lp3288
sg20
I26
sg21
(lp3289
I99
aI100
aI105
asbag2
(g10
g4
NtRp3290
(dp3291
g13
g14
(g16
S'\x1e\x00\x00\x00\x00\x00\x00\x00'
tRp3292
sg18
(lp3293
sg20
I27
sg21
(lp3294
I96
aI99
aI102
asbasg118
I17
sbtp3295
a(S'm'
g2
(g3
g4
NtRp3296
(dp3297
g7
I112
sg8
(lp3298
g2
(g10
g4
NtRp3299
(dp3300
g13
g14
(g16
S'\x1f\x00\x00\x00\x00\x00\x00\x00'
tRp3301
sg18
(lp3302
sg20
I19
sg21
(lp3303
I109
aI122
asbag2
(g10
g4
NtRp3304
(dp3305
g13
g14
(g16
S'\x1c\x00\x00\x00\x00\x00\x00\x00'
tRp3306
sg18
(lp3307
sg20
I20
sg21
(lp3308
I93
aI106
asbag2
(g10
g4
NtRp3309
(dp3310
g13
g14
(g16
S'\x1c\x00\x00\x00\x00\x00\x00\x00'
tRp3311
sg18
(lp3312
sg20
I21
sg21
(lp3313
I102
aI105
aI109
asbag2
(g10
g4
NtRp3314
(dp3315
g13
g14
(g16
S'\x1d\x00\x00\x00\x00\x00\x00\x00'
tRp3316
sg18
(lp3317
sg20
I22
sg21
(lp3318
I98
aI102
aI108
asbag2
(g10
g4
NtRp3319
(dp3320
g13
g14
(g16
S'\x1b\x00\x00\x00\x00\x00\x00\x00'
tRp3321
sg18
(lp3322
sg20
I23
sg21
(lp3323
I101
aI106
asbag2
(g10
g4
NtRp3324
(dp3325
g13
g14
(g16
S'\x1b\x00\x00\x00\x00\x00\x00\x00'
tRp3326
sg18
(lp3327
sg20
I24
sg21
(lp3328
I92
aI94
aI99
asbag2
(g10
g4
NtRp3329
(dp3330
g13
g14
(g16
S'\x1a\x00\x00\x00\x00\x00\x00\x00'
tRp3331
sg18
(lp3332
sg20
I25
sg21
(lp3333
I87
aI92
aI93
aI98
asbag2
(g10
g4
NtRp3334
(dp3335
g13
g14
(g16
S'\x1b\x00\x00\x00\x00\x00\x00\x00'
tRp3336
sg18
(lp3337
sg20
I26
sg21
(lp3338
I91
aI95
asbag2
(g10
g4
NtRp3339
(dp3340
g13
g14
(g16
S'\x19\x00\x00\x00\x00\x00\x00\x00'
tRp3341
sg18
(lp3342
sg20
I27
sg21
(lp3343
I82
aI86
aI90
asbag2
(g10
g4
NtRp3344
(dp3345
g13
g14
(g16
S'\x1b\x00\x00\x00\x00\x00\x00\x00'
tRp3346
sg18
(lp3347
sg20
I28
sg21
(lp3348
I96
aI101
asbag2
(g10
g4
NtRp3349
(dp3350
g13
g14
(g16
S'\x1e\x00\x00\x00\x00\x00\x00\x00'
tRp3351
sg18
(lp3352
sg20
I29
sg21
(lp3353
I96
aI100
aI104
asbag2
(g10
g4
NtRp3354
(dp3355
g13
g14
(g16
S'\x1a\x00\x00\x00\x00\x00\x00\x00'
tRp3356
sg18
(lp3357
sg20
I30
sg21
(lp3358
I87
aI88
aI96
aI100
asbag2
(g10
g4
NtRp3359
(dp3360
g13
g14
(g16
S'\x1a\x00\x00\x00\x00\x00\x00\x00'
tRp3361
sg18
(lp3362
sg20
I31
sg21
(lp3363
I97
aI102
aI107
aI110
aI112
asbag2
(g10
g4
NtRp3364
(dp3365
g13
g14
(g16
S'\x1a\x00\x00\x00\x00\x00\x00\x00'
tRp3366
sg18
(lp3367
sg20
I32
sg21
(lp3368
I91
aI93
aI96
aI100
asbag2
(g10
g4
NtRp3369
(dp3370
g13
g14
(g16
S'\x1a\x00\x00\x00\x00\x00\x00\x00'
tRp3371
sg18
(lp3372
sg20
I33
sg21
(lp3373
I89
aI92
aI95
aI96
aI98
asbag2
(g10
g4
NtRp3374
(dp3375
g13
g14
(g16
S'\x17\x00\x00\x00\x00\x00\x00\x00'
tRp3376
sg18
(lp3377
sg20
I34
sg21
(lp3378
I73
aI80
aI81
aI88
asbag2
(g10
g4
NtRp3379
(dp3380
g13
g14
(g16
S'\x1a\x00\x00\x00\x00\x00\x00\x00'
tRp3381
sg18
(lp3382
sg20
I35
sg21
(lp3383
I91
aI95
aI99
ag14
(g16
S'W\x00\x00\x00\x00\x00\x00\x00'
tRp3384
asbag2
(g10
g4
NtRp3385
(dp3386
g13
g14
(g16
S'\x19\x00\x00\x00\x00\x00\x00\x00'
tRp3387
sg18
(lp3388
sg20
I36
sg21
(lp3389
I75
aI82
aI89
aI94
ag14
(g16
S'L\x00\x00\x00\x00\x00\x00\x00'
tRp3390
asbag2
(g10
g4
NtRp3391
(dp3392
g13
g14
(g16
S'\x17\x00\x00\x00\x00\x00\x00\x00'
tRp3393
sg18
(lp3394
sg20
I37
sg21
(lp3395
I72
aI78
aI82
aI86
asbag2
(g10
g4
NtRp3396
(dp3397
g13
g14
(g16
S'\x18\x00\x00\x00\x00\x00\x00\x00'
tRp3398
sg18
(lp3399
sg20
I38
sg21
(lp3400
I89
aI90
aI96
asbag2
(g10
g4
NtRp3401
(dp3402
g13
g14
(g16
S'\x18\x00\x00\x00\x00\x00\x00\x00'
tRp3403
sg18
(lp3404
sg20
I39
sg21
(lp3405
I75
aI81
aI84
aI85
aI91
asbag2
(g10
g4
NtRp3406
(dp3407
g13
g14
(g16
S'\x17\x00\x00\x00\x00\x00\x00\x00'
tRp3408
sg18
(lp3409
sg20
I40
sg21
(lp3410
I77
aI83
aI86
aI90
asbag2
(g10
g4
NtRp3411
(dp3412
g13
g14
(g16
S'\x17\x00\x00\x00\x00\x00\x00\x00'
tRp3413
sg18
(lp3414
sg20
I41
sg21
(lp3415
I75
aI88
aI89
aI92
asbag2
(g10
g4
NtRp3416
(dp3417
g13
g14
(g16
S'\x17\x00\x00\x00\x00\x00\x00\x00'
tRp3418
sg18
(lp3419
sg20
I42
sg21
(lp3420
I78
aI79
aI82
asbag2
(g10
g4
NtRp3421
(dp3422
g13
g14
(g16
S'\x14\x00\x00\x00\x00\x00\x00\x00'
tRp3423
sg18
(lp3424
sg20
I43
sg21
(lp3425
I65
aI78
aI85
ag14
(g16
S'E\x00\x00\x00\x00\x00\x00\x00'
tRp3426
asbag2
(g10
g4
NtRp3427
(dp3428
g13
g14
(g16
S'\x17\x00\x00\x00\x00\x00\x00\x00'
tRp3429
sg18
(lp3430
sg20
I44
sg21
(lp3431
I79
aI90
aI94
aI95
aI98
aI99
asbag2
(g10
g4
NtRp3432
(dp3433
g13
g14
(g16
S'\x1a\x00\x00\x00\x00\x00\x00\x00'
tRp3434
sg18
(lp3435
sg20
I45
sg21
(lp3436
I66
aI74
aI77
aI78
aI82
asbag2
(g10
g4
NtRp3437
(dp3438
g13
g14
(g16
S'\x19\x00\x00\x00\x00\x00\x00\x00'
tRp3439
sg18
(lp3440
sg20
I46
sg21
(lp3441
I88
aI93
aI94
aI99
ag14
(g16
S'P\x00\x00\x00\x00\x00\x00\x00'
tRp3442
asbag2
(g10
g4
NtRp3443
(dp3444
g13
g14
(g16
S'\x1b\x00\x00\x00\x00\x00\x00\x00'
tRp3445
sg18
(lp3446
sg20
I47
sg21
(lp3447
I85
aI89
aI91
aI95
asbag2
(g10
g4
NtRp3448
(dp3449
g13
g14
(g16
S'\x17\x00\x00\x00\x00\x00\x00\x00'
tRp3450
sg18
(lp3451
sg20
I48
sg21
(lp3452
I79
aI82
aI84
aI91
asbag2
(g10
g4
NtRp3453
(dp3454
g13
g14
(g16
S'\x16\x00\x00\x00\x00\x00\x00\x00'
tRp3455
sg18
(lp3456
sg20
I49
sg21
(lp3457
I68
aI73
aI77
asbag2
(g10
g4
NtRp3458
(dp3459
g13
g14
(g16
S'\x17\x00\x00\x00\x00\x00\x00\x00'
tRp3460
sg18
(lp3461
sg20
I50
sg21
(lp3462
I83
aI85
ag14
(g16
S'?\x00\x00\x00\x00\x00\x00\x00'
tRp3463
ag14
(g16
S'K\x00\x00\x00\x00\x00\x00\x00'
tRp3464
asbag2
(g10
g4
NtRp3465
(dp3466
g13
g14
(g16
S'\x14\x00\x00\x00\x00\x00\x00\x00'
tRp3467
sg18
(lp3468
sg20
I51
sg21
(lp3469
I71
aI78
ag14
(g16
S'<\x00\x00\x00\x00\x00\x00\x00'
tRp3470
asbag2
(g10
g4
NtRp3471
(dp3472
g13
g14
(g16
S'\x18\x00\x00\x00\x00\x00\x00\x00'
tRp3473
sg18
(lp3474
sg20
I52
sg21
(lp3475
I72
aI76
aI77
aI80
aI84
ag14
(g16
S'?\x00\x00\x00\x00\x00\x00\x00'
tRp3476
asbag2
(g10
g4
NtRp3477
(dp3478
g13
g14
(g16
S'\x16\x00\x00\x00\x00\x00\x00\x00'
tRp3479
sg18
(lp3480
sg20
I53
sg21
(lp3481
I77
aI82
aI86
ag14
(g16
S'A\x00\x00\x00\x00\x00\x00\x00'
tRp3482
ag14
(g16
S'L\x00\x00\x00\x00\x00\x00\x00'
tRp3483
asbag2
(g10
g4
NtRp3484
(dp3485
g13
g14
(g16
S'\x18\x00\x00\x00\x00\x00\x00\x00'
tRp3486
sg18
(lp3487
sg20
I54
sg21
(lp3488
I84
aI86
aI91
asbag2
(g10
g4
NtRp3489
(dp3490
g13
g14
(g16
S'\x16\x00\x00\x00\x00\x00\x00\x00'
tRp3491
sg18
(lp3492
sg20
I55
sg21
(lp3493
I80
aI84
aI88
asbag2
(g10
g4
NtRp3494
(dp3495
g13
g14
(g16
S'\x19\x00\x00\x00\x00\x00\x00\x00'
tRp3496
sg18
(lp3497
sg20
I56
sg21
(lp3498
I78
aI82
aI83
asbag2
(g10
g4
NtRp3499
(dp3500
g13
g14
(g16
S'\x17\x00\x00\x00\x00\x00\x00\x00'
tRp3501
sg18
(lp3502
sg20
I57
sg21
(lp3503
I86
aI88
aI91
ag14
(g16
S'I\x00\x00\x00\x00\x00\x00\x00'
tRp3504
asbag2
(g10
g4
NtRp3505
(dp3506
g13
g14
(g16
S'\x17\x00\x00\x00\x00\x00\x00\x00'
tRp3507
sg18
(lp3508
sg20
I58
sg21
(lp3509
I73
aI76
aI78
aI80
aI82
asbag2
(g10
g4
NtRp3510
(dp3511
g13
g14
(g16
S'\x14\x00\x00\x00\x00\x00\x00\x00'
tRp3512
sg18
(lp3513
sg20
I59
sg21
(lp3514
I81
aI85
aI89
asbag2
(g10
g4
NtRp3515
(dp3516
g13
g14
(g16
S'\x16\x00\x00\x00\x00\x00\x00\x00'
tRp3517
sg18
(lp3518
sg20
I60
sg21
(lp3519
I89
aI94
aI96
asbag2
(g10
g4
NtRp3520
(dp3521
g13
g14
(g16
S'\x16\x00\x00\x00\x00\x00\x00\x00'
tRp3522
sg18
(lp3523
sg20
I61
sg21
(lp3524
I76
asbag2
(g10
g4
NtRp3525
(dp3526
g13
g14
(g16
S'\x16\x00\x00\x00\x00\x00\x00\x00'
tRp3527
sg18
(lp3528
sg20
I62
sg21
(lp3529
I69
aI72
asbag2
(g10
g4
NtRp3530
(dp3531
g13
g14
(g16
S'\x1b\x00\x00\x00\x00\x00\x00\x00'
tRp3532
sg18
(lp3533
sg20
I63
sg21
(lp3534
I83
aI87
asbag2
(g10
g4
NtRp3535
(dp3536
g13
g14
(g16
S'\x1b\x00\x00\x00\x00\x00\x00\x00'
tRp3537
sg18
(lp3538
sg20
I64
sg21
(lp3539
I84
aI86
aI87
asbag2
(g10
g4
NtRp3540
(dp3541
g13
g14
(g16
S'\x17\x00\x00\x00\x00\x00\x00\x00'
tRp3542
sg18
(lp3543
sg20
I65
sg21
(lp3544
I77
aI80
asbag2
(g10
g4
NtRp3545
(dp3546
g13
g14
(g16
S'\x1c\x00\x00\x00\x00\x00\x00\x00'
tRp3547
sg18
(lp3548
sg20
I66
sg21
(lp3549
I75
aI79
aI82
asbag2
(g10
g4
NtRp3550
(dp3551
g13
g14
(g16
S'\x15\x00\x00\x00\x00\x00\x00\x00'
tRp3552
sg18
(lp3553
sg20
I67
sg21
(lp3554
I78
aI81
asbag2
(g10
g4
NtRp3555
(dp3556
g13
g14
(g16
S'\x14\x00\x00\x00\x00\x00\x00\x00'
tRp3557
sg18
(lp3558
sg20
I68
sg21
(lp3559
I81
aI84
asbag2
(g10
g4
NtRp3560
(dp3561
g13
g14
(g16
S'\x12\x00\x00\x00\x00\x00\x00\x00'
tRp3562
sg18
(lp3563
sg20
I69
sg21
(lp3564
I61
aI68
asbag2
(g10
g4
NtRp3565
(dp3566
g13
g14
(g16
S'\x1a\x00\x00\x00\x00\x00\x00\x00'
tRp3567
sg18
(lp3568
sg20
I70
sg21
(lp3569
I67
aI75
ag14
(g16
S'<\x00\x00\x00\x00\x00\x00\x00'
tRp3570
asbag2
(g10
g4
NtRp3571
(dp3572
g13
g14
(g16
S'\x17\x00\x00\x00\x00\x00\x00\x00'
tRp3573
sg18
(lp3574
sg20
I71
sg21
(lp3575
I74
ag14
(g16
S'D\x00\x00\x00\x00\x00\x00\x00'
tRp3576
asbag2
(g10
g4
NtRp3577
(dp3578
g13
g14
(g16
S'\x17\x00\x00\x00\x00\x00\x00\x00'
tRp3579
sg18
(lp3580
sg20
I72
sg21
(lp3581
I68
aI75
aI79
aI80
ag14
(g16
S'@\x00\x00\x00\x00\x00\x00\x00'
tRp3582
asbag2
(g10
g4
NtRp3583
(dp3584
g13
g14
(g16
S'\x16\x00\x00\x00\x00\x00\x00\x00'
tRp3585
sg18
(lp3586
sg20
I73
sg21
(lp3587
I76
aI85
aI87
ag14
(g16
S'J\x00\x00\x00\x00\x00\x00\x00'
tRp3588
asbag2
(g10
g4
NtRp3589
(dp3590
g13
g14
(g16
S'\x17\x00\x00\x00\x00\x00\x00\x00'
tRp3591
sg18
(lp3592
sg20
I74
sg21
(lp3593
I64
aI70
aI80
ag14
(g16
S'E\x00\x00\x00\x00\x00\x00\x00'
tRp3594
asbag2
(g10
g4
NtRp3595
(dp3596
g13
g14
(g16
S'\x16\x00\x00\x00\x00\x00\x00\x00'
tRp3597
sg18
(lp3598
sg20
I75
sg21
(lp3599
I78
aI82
ag14
(g16
S'E\x00\x00\x00\x00\x00\x00\x00'
tRp3600
asbag2
(g10
g4
NtRp3601
(dp3602
g13
g14
(g16
S'\x14\x00\x00\x00\x00\x00\x00\x00'
tRp3603
sg18
(lp3604
sg20
I76
sg21
(lp3605
I69
aI71
aI74
asbag2
(g10
g4
NtRp3606
(dp3607
g13
g14
(g16
S'\x18\x00\x00\x00\x00\x00\x00\x00'
tRp3608
sg18
(lp3609
sg20
I77
sg21
(lp3610
I71
aI76
aI79
aI80
ag14
(g16
S'>\x00\x00\x00\x00\x00\x00\x00'
tRp3611
asbag2
(g10
g4
NtRp3612
(dp3613
g13
g14
(g16
S'\x16\x00\x00\x00\x00\x00\x00\x00'
tRp3614
sg18
(lp3615
sg20
I78
sg21
(lp3616
I73
aI75
aI78
ag14
(g16
S'?\x00\x00\x00\x00\x00\x00\x00'
tRp3617
asbag2
(g10
g4
NtRp3618
(dp3619
g13
g14
(g16
S'\x17\x00\x00\x00\x00\x00\x00\x00'
tRp3620
sg18
(lp3621
sg20
I79
sg21
(lp3622
I79
aI80
aI81
ag14
(g16
S'A\x00\x00\x00\x00\x00\x00\x00'
tRp3623
asbag2
(g10
g4
NtRp3624
(dp3625
g13
g14
(g16
S'\x18\x00\x00\x00\x00\x00\x00\x00'
tRp3626
sg18
(lp3627
sg20
I80
sg21
(lp3628
I79
aI81
aI84
aI85
ag14
(g16
S'F\x00\x00\x00\x00\x00\x00\x00'
tRp3629
asbag2
(g10
g4
NtRp3630
(dp3631
g13
g14
(g16
S'\x16\x00\x00\x00\x00\x00\x00\x00'
tRp3632
sg18
(lp3633
sg20
I81
sg21
(lp3634
I84
aI88
ag14
(g16
S'I\x00\x00\x00\x00\x00\x00\x00'
tRp3635
asbag2
(g10
g4
NtRp3636
(dp3637
g13
g14
(g16
S'\x1a\x00\x00\x00\x00\x00\x00\x00'
tRp3638
sg18
(lp3639
sg20
I82
sg21
(lp3640
I73
aI79
aI82
aI83
asbag2
(g10
g4
NtRp3641
(dp3642
g13
g14
(g16
S'\x18\x00\x00\x00\x00\x00\x00\x00'
tRp3643
sg18
(lp3644
sg20
I83
sg21
(lp3645
I75
aI76
ag14
(g16
S'@\x00\x00\x00\x00\x00\x00\x00'
tRp3646
asbag2
(g10
g4
NtRp3647
(dp3648
g13
g14
(g16
S'\x17\x00\x00\x00\x00\x00\x00\x00'
tRp3649
sg18
(lp3650
sg20
I84
sg21
(lp3651
I78
aI80
aI84
ag14
(g16
S'A\x00\x00\x00\x00\x00\x00\x00'
tRp3652
asbag2
(g10
g4
NtRp3653
(dp3654
g13
g14
(g16
S'\x18\x00\x00\x00\x00\x00\x00\x00'
tRp3655
sg18
(lp3656
sg20
I85
sg21
(lp3657
I69
aI70
ag14
(g16
S':\x00\x00\x00\x00\x00\x00\x00'
tRp3658
asbag2
(g10
g4
NtRp3659
(dp3660
g13
g14
(g16
S'\x15\x00\x00\x00\x00\x00\x00\x00'
tRp3661
sg18
(lp3662
sg20
I86
sg21
(lp3663
I81
aI82
aI85
aI86
ag14
(g16
S'B\x00\x00\x00\x00\x00\x00\x00'
tRp3664
asbag2
(g10
g4
NtRp3665
(dp3666
g13
g14
(g16
S'\x15\x00\x00\x00\x00\x00\x00\x00'
tRp3667
sg18
(lp3668
sg20
I87
sg21
(lp3669
I77
aI78
aI80
aI82
ag14
(g16
S'?\x00\x00\x00\x00\x00\x00\x00'
tRp3670
asbag2
(g10
g4
NtRp3671
(dp3672
g13
g14
(g16
S'\x14\x00\x00\x00\x00\x00\x00\x00'
tRp3673
sg18
(lp3674
sg20
I88
sg21
(lp3675
I84
aI85
ag14
(g16
S'C\x00\x00\x00\x00\x00\x00\x00'
tRp3676
asbag2
(g10
g4
NtRp3677
(dp3678
g13
g14
(g16
S'\x14\x00\x00\x00\x00\x00\x00\x00'
tRp3679
sg18
(lp3680
sg20
I89
sg21
(lp3681
I78
aI80
aI82
aI83
ag14
(g16
S'>\x00\x00\x00\x00\x00\x00\x00'
tRp3682
asbag2
(g10
g4
NtRp3683
(dp3684
g13
g14
(g16
S'\x15\x00\x00\x00\x00\x00\x00\x00'
tRp3685
sg18
(lp3686
sg20
I90
sg21
(lp3687
I76
aI77
aI78
ag14
(g16
S'>\x00\x00\x00\x00\x00\x00\x00'
tRp3688
asbag2
(g10
g4
NtRp3689
(dp3690
g13
g14
(g16
S'\x15\x00\x00\x00\x00\x00\x00\x00'
tRp3691
sg18
(lp3692
sg20
I91
sg21
(lp3693
I76
aI77
aI78
aI79
ag14
(g16
S'H\x00\x00\x00\x00\x00\x00\x00'
tRp3694
asbag2
(g10
g4
NtRp3695
(dp3696
g13
g14
(g16
S'\x14\x00\x00\x00\x00\x00\x00\x00'
tRp3697
sg18
(lp3698
sg20
I92
sg21
(lp3699
I68
aI69
ag14
(g16
S':\x00\x00\x00\x00\x00\x00\x00'
tRp3700
asbag2
(g10
g4
NtRp3701
(dp3702
g13
g14
(g16
S'\x13\x00\x00\x00\x00\x00\x00\x00'
tRp3703
sg18
(lp3704
sg20
I93
sg21
(lp3705
I77
aI81
aI82
ag14
(g16
S';\x00\x00\x00\x00\x00\x00\x00'
tRp3706
ag14
(g16
S'I\x00\x00\x00\x00\x00\x00\x00'
tRp3707
asbag2
(g10
g4
NtRp3708
(dp3709
g13
g14
(g16
S'\x14\x00\x00\x00\x00\x00\x00\x00'
tRp3710
sg18
(lp3711
sg20
I94
sg21
(lp3712
I78
aI81
ag14
(g16
S'?\x00\x00\x00\x00\x00\x00\x00'
tRp3713
asbag2
(g10
g4
NtRp3714
(dp3715
g13
g14
(g16
S'\x12\x00\x00\x00\x00\x00\x00\x00'
tRp3716
sg18
(lp3717
sg20
I95
sg21
(lp3718
I65
aI68
ag14
(g16
S'7\x00\x00\x00\x00\x00\x00\x00'
tRp3719
asbag2
(g10
g4
NtRp3720
(dp3721
g13
g14
(g16
S'\x14\x00\x00\x00\x00\x00\x00\x00'
tRp3722
sg18
(lp3723
sg20
I96
sg21
(lp3724
I57
aI58
ag14
(g16
S'1\x00\x00\x00\x00\x00\x00\x00'
tRp3725
asbag2
(g10
g4
NtRp3726
(dp3727
g13
g14
(g16
S'\x14\x00\x00\x00\x00\x00\x00\x00'
tRp3728
sg18
(lp3729
sg20
I97
sg21
(lp3730
I69
aI73
aI76
ag14
(g16
S'6\x00\x00\x00\x00\x00\x00\x00'
tRp3731
asbag2
(g10
g4
NtRp3732
(dp3733
g13
g14
(g16
S'\x13\x00\x00\x00\x00\x00\x00\x00'
tRp3734
sg18
(lp3735
sg20
I98
sg21
(lp3736
I72
aI73
aI75
ag14
(g16
S'A\x00\x00\x00\x00\x00\x00\x00'
tRp3737
asbag2
(g10
g4
NtRp3738
(dp3739
g13
g14
(g16
S'\x15\x00\x00\x00\x00\x00\x00\x00'
tRp3740
sg18
(lp3741
sg20
I99
sg21
(lp3742
I69
aI71
aI74
ag14
(g16
S'<\x00\x00\x00\x00\x00\x00\x00'
tRp3743
ag14
(g16
S'B\x00\x00\x00\x00\x00\x00\x00'
tRp3744
asbag2
(g10
g4
NtRp3745
(dp3746
g13
g14
(g16
S'\x14\x00\x00\x00\x00\x00\x00\x00'
tRp3747
sg18
(lp3748
sg20
I100
sg21
(lp3749
I76
aI77
aI78
aI80
ag14
(g16
S'D\x00\x00\x00\x00\x00\x00\x00'
tRp3750
asbag2
(g10
g4
NtRp3751
(dp3752
g13
g14
(g16
S'\x16\x00\x00\x00\x00\x00\x00\x00'
tRp3753
sg18
(lp3754
sg20
I101
sg21
(lp3755
I73
aI77
ag14
(g16
S'>\x00\x00\x00\x00\x00\x00\x00'
tRp3756
asbag2
(g10
g4
NtRp3757
(dp3758
g13
g14
(g16
S'\x14\x00\x00\x00\x00\x00\x00\x00'
tRp3759
sg18
(lp3760
sg20
I102
sg21
(lp3761
I73
aI74
aI76
ag14
(g16
S'<\x00\x00\x00\x00\x00\x00\x00'
tRp3762
asbag2
(g10
g4
NtRp3763
(dp3764
g13
g14
(g16
S'\x18\x00\x00\x00\x00\x00\x00\x00'
tRp3765
sg18
(lp3766
sg20
I103
sg21
(lp3767
I74
aI75
aI76
ag14
(g16
S'A\x00\x00\x00\x00\x00\x00\x00'
tRp3768
asbag2
(g10
g4
NtRp3769
(dp3770
g13
g14
(g16
S'\x15\x00\x00\x00\x00\x00\x00\x00'
tRp3771
sg18
(lp3772
sg20
I104
sg21
(lp3773
I69
aI70
aI71
ag14
(g16
S'<\x00\x00\x00\x00\x00\x00\x00'
tRp3774
asbag2
(g10
g4
NtRp3775
(dp3776
g13
g14
(g16
S'\x16\x00\x00\x00\x00\x00\x00\x00'
tRp3777
sg18
(lp3778
sg20
I105
sg21
(lp3779
I81
aI83
aI85
ag14
(g16
S'H\x00\x00\x00\x00\x00\x00\x00'
tRp3780
asbag2
(g10
g4
NtRp3781
(dp3782
g13
g14
(g16
S'\x16\x00\x00\x00\x00\x00\x00\x00'
tRp3783
sg18
(lp3784
sg20
I106
sg21
(lp3785
I71
aI73
aI75
ag14
(g16
S'@\x00\x00\x00\x00\x00\x00\x00'
tRp3786
asbag2
(g10
g4
NtRp3787
(dp3788
g13
g14
(g16
S'\x13\x00\x00\x00\x00\x00\x00\x00'
tRp3789
sg18
(lp3790
sg20
I107
sg21
(lp3791
I67
aI68
aI69
ag14
(g16
S'7\x00\x00\x00\x00\x00\x00\x00'
tRp3792
asbag2
(g10
g4
NtRp3793
(dp3794
g13
g14
(g16
S'\x10\x00\x00\x00\x00\x00\x00\x00'
tRp3795
sg18
(lp3796
sg20
I108
sg21
(lp3797
I60
aI61
aI63
asbag2
(g10
g4
NtRp3798
(dp3799
g13
g14
(g16
S'\x15\x00\x00\x00\x00\x00\x00\x00'
tRp3800
sg18
(lp3801
sg20
I109
sg21
(lp3802
I58
aI60
aI61
ag14
(g16
S'7\x00\x00\x00\x00\x00\x00\x00'
tRp3803
asbag2
(g10
g4
NtRp3804
(dp3805
g13
g14
(g16
S'\x15\x00\x00\x00\x00\x00\x00\x00'
tRp3806
sg18
(lp3807
sg20
I110
sg21
(lp3808
I70
aI73
asbag2
(g10
g4
NtRp3809
(dp3810
g13
g14
(g16
S'\x13\x00\x00\x00\x00\x00\x00\x00'
tRp3811
sg18
(lp3812
sg20
I111
sg21
(lp3813
I82
aI85
aI86
asbag2
(g10
g4
NtRp3814
(dp3815
g13
g14
(g16
S'\x14\x00\x00\x00\x00\x00\x00\x00'
tRp3816
sg18
(lp3817
sg20
I112
sg21
(lp3818
I76
aI80
ag14
(g16
S'G\x00\x00\x00\x00\x00\x00\x00'
tRp3819
asbasg118
I19
sbtp3820
a.