(lp1
(S'r'
ccopy_reg
_reconstructor
p2
(cdahlia_backend
Trajectory
p3
c__builtin__
object
p4
NtRp5
(dp6
S'end'
p7
I23
sS'cells'
p8
(lp9
g2
(cdahlia_backend
Cell
p10
g4
NtRp11
(dp12
S'body'
p13
cnumpy.core.multiarray
scalar
p14
(cnumpy
dtype
p15
(S'i8'
I0
I1
tRp16
(I3
S'<'
NNNI-1
I-1
I0
tbS')\x00\x00\x00\x00\x00\x00\x00'
tRp17
sS'trajectories'
p18
(lp19
sS'frame_number'
p20
I19
sS'arms'
p21
(lp22
I137
aI144
aI149
asbag2
(g10
g4
NtRp23
(dp24
g13
g14
(g16
S'%\x00\x00\x00\x00\x00\x00\x00'
tRp25
sg18
(lp26
sg20
I20
sg21
(lp27
I122
aI128
aI137
asbag2
(g10
g4
NtRp28
(dp29
g13
g14
(g16
S'&\x00\x00\x00\x00\x00\x00\x00'
tRp30
sg18
(lp31
sg20
I21
sg21
(lp32
I127
aI130
aI131
asbag2
(g10
g4
NtRp33
(dp34
g13
g14
(g16
S')\x00\x00\x00\x00\x00\x00\x00'
tRp35
sg18
(lp36
sg20
I22
sg21
(lp37
I120
aI121
ag14
(g16
S'\x7f\x00\x00\x00\x00\x00\x00\x00'
tRp38
asbag2
(g10
g4
NtRp39
(dp40
g13
g14
(g16
S'%\x00\x00\x00\x00\x00\x00\x00'
tRp41
sg18
(lp42
sg20
I23
sg21
(lp43
I119
aI121
ag14
(g16
S'\x7f\x00\x00\x00\x00\x00\x00\x00'
tRp44
asbasS'beginning'
p45
I19
sbtp46
a(S'm'
g2
(g3
g4
NtRp47
(dp48
g7
I22
sg8
(lp49
g2
(g10
g4
NtRp50
(dp51
g13
g14
(g16
S'-\x00\x00\x00\x00\x00\x00\x00'
tRp52
sg18
(lp53
sg20
I19
sg21
(lp54
I157
aI162
aI166
asbag2
(g10
g4
NtRp55
(dp56
g13
g14
(g16
S'*\x00\x00\x00\x00\x00\x00\x00'
tRp57
sg18
(lp58
sg20
I20
sg21
(lp59
I143
aI150
asbag2
(g10
g4
NtRp60
(dp61
g13
g14
(g16
S'*\x00\x00\x00\x00\x00\x00\x00'
tRp62
sg18
(lp63
sg20
I21
sg21
(lp64
I142
aI151
asbag2
(g10
g4
NtRp65
(dp66
g13
g14
(g16
S'-\x00\x00\x00\x00\x00\x00\x00'
tRp67
sg18
(lp68
sg20
I22
sg21
(lp69
I133
ag14
(g16
S'\x86\x00\x00\x00\x00\x00\x00\x00'
tRp70
asbasg45
I19
sbtp71
a(S'm'
g2
(g3
g4
NtRp72
(dp73
g7
I39
sg8
(lp74
g2
(g10
g4
NtRp75
(dp76
g13
g14
(g16
S'\x13\x00\x00\x00\x00\x00\x00\x00'
tRp77
sg18
(lp78
sg20
I20
sg21
(lp79
I76
aI86
asbag2
(g10
g4
NtRp80
(dp81
g13
g14
(g16
S'\x14\x00\x00\x00\x00\x00\x00\x00'
tRp82
sg18
(lp83
sg20
I21
sg21
(lp84
I76
aI79
aI93
asbag2
(g10
g4
NtRp85
(dp86
g13
g14
(g16
S'\x1a\x00\x00\x00\x00\x00\x00\x00'
tRp87
sg18
(lp88
sg20
I22
sg21
(lp89
I96
asbag2
(g10
g4
NtRp90
(dp91
g13
g14
(g16
S'\x15\x00\x00\x00\x00\x00\x00\x00'
tRp92
sg18
(lp93
sg20
I23
sg21
(lp94
I94
asbag2
(g10
g4
NtRp95
(dp96
g13
g14
(g16
S'\x17\x00\x00\x00\x00\x00\x00\x00'
tRp97
sg18
(lp98
sg20
I24
sg21
(lp99
g14
(g16
S'R\x00\x00\x00\x00\x00\x00\x00'
tRp100
asbag2
(g10
g4
NtRp101
(dp102
g13
g14
(g16
S'\x13\x00\x00\x00\x00\x00\x00\x00'
tRp103
sg18
(lp104
sg20
I25
sg21
(lp105
I72
aI83
asbag2
(g10
g4
NtRp106
(dp107
g13
g14
(g16
S'\x12\x00\x00\x00\x00\x00\x00\x00'
tRp108
sg18
(lp109
sg20
I26
sg21
(lp110
I66
aI80
aI85
asbag2
(g10
g4
NtRp111
(dp112
g13
g14
(g16
S'\x11\x00\x00\x00\x00\x00\x00\x00'
tRp113
sg18
(lp114
sg20
I27
sg21
(lp115
I62
aI66
aI75
aI78
asbag2
(g10
g4
NtRp116
(dp117
g13
g14
(g16
S'\x12\x00\x00\x00\x00\x00\x00\x00'
tRp118
sg18
(lp119
sg20
I28
sg21
(lp120
I67
aI68
aI85
aI86
asbag2
(g10
g4
NtRp121
(dp122
g13
g14
(g16
S'\x13\x00\x00\x00\x00\x00\x00\x00'
tRp123
sg18
(lp124
sg20
I29
sg21
(lp125
I67
aI70
aI82
aI87
asbag2
(g10
g4
NtRp126
(dp127
g13
g14
(g16
S'\x11\x00\x00\x00\x00\x00\x00\x00'
tRp128
sg18
(lp129
sg20
I30
sg21
(lp130
I67
aI69
aI77
aI80
asbag2
(g10
g4
NtRp131
(dp132
g13
g14
(g16
S'\x10\x00\x00\x00\x00\x00\x00\x00'
tRp133
sg18
(lp134
sg20
I31
sg21
(lp135
I75
aI77
aI79
aI86
aI89
aI90
asbag2
(g10
g4
NtRp136
(dp137
g13
g14
(g16
S'\x11\x00\x00\x00\x00\x00\x00\x00'
tRp138
sg18
(lp139
sg20
I32
sg21
(lp140
I67
aI69
aI74
aI79
ag14
(g16
S'D\x00\x00\x00\x00\x00\x00\x00'
tRp141
asbag2
(g10
g4
NtRp142
(dp143
g13
g14
(g16
S'\x11\x00\x00\x00\x00\x00\x00\x00'
tRp144
sg18
(lp145
sg20
I33
sg21
(lp146
I68
aI82
ag14
(g16
S'E\x00\x00\x00\x00\x00\x00\x00'
tRp147
asbag2
(g10
g4
NtRp148
(dp149
g13
g14
(g16
S'\x10\x00\x00\x00\x00\x00\x00\x00'
tRp150
sg18
(lp151
sg20
I34
sg21
(lp152
I58
aI69
ag14
(g16
S'D\x00\x00\x00\x00\x00\x00\x00'
tRp153
asbag2
(g10
g4
NtRp154
(dp155
g13
g14
(g16
S'\x0f\x00\x00\x00\x00\x00\x00\x00'
tRp156
sg18
(lp157
sg20
I35
sg21
(lp158
I65
aI68
aI71
ag14
(g16
S'O\x00\x00\x00\x00\x00\x00\x00'
tRp159
asbag2
(g10
g4
NtRp160
(dp161
g13
g14
(g16
S'\x10\x00\x00\x00\x00\x00\x00\x00'
tRp162
sg18
(lp163
sg20
I36
sg21
(lp164
I65
aI74
ag14
(g16
S'>\x00\x00\x00\x00\x00\x00\x00'
tRp165
asbag2
(g10
g4
NtRp166
(dp167
g13
g14
(g16
S'\x0f\x00\x00\x00\x00\x00\x00\x00'
tRp168
sg18
(lp169
sg20
I37
sg21
(lp170
I56
aI65
aI66
ag14
(g16
S'5\x00\x00\x00\x00\x00\x00\x00'
tRp171
asbag2
(g10
g4
NtRp172
(dp173
g13
g14
(g16
S'\x11\x00\x00\x00\x00\x00\x00\x00'
tRp174
sg18
(lp175
sg20
I38
sg21
(lp176
I68
aI73
asbag2
(g10
g4
NtRp177
(dp178
g13
g14
(g16
S'\x10\x00\x00\x00\x00\x00\x00\x00'
tRp179
sg18
(lp180
sg20
I39
sg21
(lp181
I53
aI69
ag14
(g16
S'7\x00\x00\x00\x00\x00\x00\x00'
tRp182
asbasg45
I20
sbtp183
a(S'r'
g2
(g3
g4
NtRp184
(dp185
g7
I76
sg8
(lp186
g2
(g10
g4
NtRp187
(dp188
g13
g14
(g16
S'"\x00\x00\x00\x00\x00\x00\x00'
tRp189
sg18
(lp190
sg20
I29
sg21
(lp191
I111
asbag2
(g10
g4
NtRp192
(dp193
g13
g14
(g16
S'\x1f\x00\x00\x00\x00\x00\x00\x00'
tRp194
sg18
(lp195
sg20
I30
sg21
(lp196
g14
(g16
S'l\x00\x00\x00\x00\x00\x00\x00'
tRp197
asbag2
(g10
g4
NtRp198
(dp199
g13
g14
(g16
S'\x1d\x00\x00\x00\x00\x00\x00\x00'
tRp200
sg18
(lp201
sg20
I31
sg21
(lp202
I116
aI123
asbag2
(g10
g4
NtRp203
(dp204
g13
g14
(g16
S'\x1d\x00\x00\x00\x00\x00\x00\x00'
tRp205
sg18
(lp206
sg20
I32
sg21
(lp207
I101
aI105
asbag2
(g10
g4
NtRp208
(dp209
g13
g14
(g16
S'\x1e\x00\x00\x00\x00\x00\x00\x00'
tRp210
sg18
(lp211
sg20
I33
sg21
(lp212
I102
aI105
asbag2
(g10
g4
NtRp213
(dp214
g13
g14
(g16
S'\x1b\x00\x00\x00\x00\x00\x00\x00'
tRp215
sg18
(lp216
sg20
I34
sg21
(lp217
I90
aI95
aI97
asbag2
(g10
g4
NtRp218
(dp219
g13
g14
(g16
S'\x1e\x00\x00\x00\x00\x00\x00\x00'
tRp220
sg18
(lp221
sg20
I35
sg21
(lp222
I101
aI106
aI107
asbag2
(g10
g4
NtRp223
(dp224
g13
g14
(g16
S'\x1d\x00\x00\x00\x00\x00\x00\x00'
tRp225
sg18
(lp226
sg20
I36
sg21
(lp227
I96
aI97
aI98
asbag2
(g10
g4
NtRp228
(dp229
g13
g14
(g16
S'\x1c\x00\x00\x00\x00\x00\x00\x00'
tRp230
sg18
(lp231
sg20
I37
sg21
(lp232
I91
aI92
aI96
asbag2
(g10
g4
NtRp233
(dp234
g13
g14
(g16
S'\x1d\x00\x00\x00\x00\x00\x00\x00'
tRp235
sg18
(lp236
sg20
I38
sg21
(lp237
I101
aI103
asbag2
(g10
g4
NtRp238
(dp239
g13
g14
(g16
S'\x1c\x00\x00\x00\x00\x00\x00\x00'
tRp240
sg18
(lp241
sg20
I39
sg21
(lp242
I94
asbag2
(g10
g4
NtRp243
(dp244
g13
g14
(g16
S'\x1c\x00\x00\x00\x00\x00\x00\x00'
tRp245
sg18
(lp246
sg20
I40
sg21
(lp247
I95
aI97
aI98
asbag2
(g10
g4
NtRp248
(dp249
g13
g14
(g16
S'\x1c\x00\x00\x00\x00\x00\x00\x00'
tRp250
sg18
(lp251
sg20
I41
sg21
(lp252
I97
aI99
asbag2
(g10
g4
NtRp253
(dp254
g13
g14
(g16
S'\x1c\x00\x00\x00\x00\x00\x00\x00'
tRp255
sg18
(lp256
sg20
I42
sg21
(lp257
I87
aI88
aI89
asbag2
(g10
g4
NtRp258
(dp259
g13
g14
(g16
S'\x1b\x00\x00\x00\x00\x00\x00\x00'
tRp260
sg18
(lp261
sg20
I43
sg21
(lp262
I90
aI92
asbag2
(g10
g4
NtRp263
(dp264
g13
g14
(g16
S'\x1d\x00\x00\x00\x00\x00\x00\x00'
tRp265
sg18
(lp266
sg20
I44
sg21
(lp267
I105
aI106
aI108
aI110
asbag2
(g10
g4
NtRp268
(dp269
g13
g14
(g16
S' \x00\x00\x00\x00\x00\x00\x00'
tRp270
sg18
(lp271
sg20
I45
sg21
(lp272
I85
aI87
asbag2
(g10
g4
NtRp273
(dp274
g13
g14
(g16
S'\x1f\x00\x00\x00\x00\x00\x00\x00'
tRp275
sg18
(lp276
sg20
I46
sg21
(lp277
I103
aI105
aI107
asbag2
(g10
g4
NtRp278
(dp279
g13
g14
(g16
S' \x00\x00\x00\x00\x00\x00\x00'
tRp280
sg18
(lp281
sg20
I47
sg21
(lp282
I101
asbag2
(g10
g4
NtRp283
(dp284
g13
g14
(g16
S'\x1d\x00\x00\x00\x00\x00\x00\x00'
tRp285
sg18
(lp286
sg20
I48
sg21
(lp287
I96
aI97
aI99
asbag2
(g10
g4
NtRp288
(dp289
g13
g14
(g16
S'\x1c\x00\x00\x00\x00\x00\x00\x00'
tRp290
sg18
(lp291
sg20
I49
sg21
(lp292
I84
aI86
asbag2
(g10
g4
NtRp293
(dp294
g13
g14
(g16
S'\x1d\x00\x00\x00\x00\x00\x00\x00'
tRp295
sg18
(lp296
sg20
I50
sg21
(lp297
I91
aI92
asbag2
(g10
g4
NtRp298
(dp299
g13
g14
(g16
S'\x1a\x00\x00\x00\x00\x00\x00\x00'
tRp300
sg18
(lp301
sg20
I51
sg21
(lp302
I82
aI84
aI85
asbag2
(g10
g4
NtRp303
(dp304
g13
g14
(g16
S'\x1e\x00\x00\x00\x00\x00\x00\x00'
tRp305
sg18
(lp306
sg20
I52
sg21
(lp307
I87
aI89
ag14
(g16
S'Z\x00\x00\x00\x00\x00\x00\x00'
tRp308
asbag2
(g10
g4
NtRp309
(dp310
g13
g14
(g16
S'\x1b\x00\x00\x00\x00\x00\x00\x00'
tRp311
sg18
(lp312
sg20
I53
sg21
(lp313
I91
ag14
(g16
S'Z\x00\x00\x00\x00\x00\x00\x00'
tRp314
asbag2
(g10
g4
NtRp315
(dp316
g13
g14
(g16
S'\x1d\x00\x00\x00\x00\x00\x00\x00'
tRp317
sg18
(lp318
sg20
I54
sg21
(lp319
I97
ag14
(g16
S'b\x00\x00\x00\x00\x00\x00\x00'
tRp320
asbag2
(g10
g4
NtRp321
(dp322
g13
g14
(g16
S'\x1e\x00\x00\x00\x00\x00\x00\x00'
tRp323
sg18
(lp324
sg20
I55
sg21
(lp325
I92
ag14
(g16
S'^\x00\x00\x00\x00\x00\x00\x00'
tRp326
asbag2
(g10
g4
NtRp327
(dp328
g13
g14
(g16
S'\x1e\x00\x00\x00\x00\x00\x00\x00'
tRp329
sg18
(lp330
sg20
I56
sg21
(lp331
I89
aI91
asbag2
(g10
g4
NtRp332
(dp333
g13
g14
(g16
S'\x1c\x00\x00\x00\x00\x00\x00\x00'
tRp334
sg18
(lp335
sg20
I57
sg21
(lp336
I97
aI98
aI99
asbag2
(g10
g4
NtRp337
(dp338
g13
g14
(g16
S'\x1d\x00\x00\x00\x00\x00\x00\x00'
tRp339
sg18
(lp340
sg20
I58
sg21
(lp341
I90
aI91
aI92
asbag2
(g10
g4
NtRp342
(dp343
g13
g14
(g16
S'\x1a\x00\x00\x00\x00\x00\x00\x00'
tRp344
sg18
(lp345
sg20
I59
sg21
(lp346
I95
aI97
aI100
aI102
asbag2
(g10
g4
NtRp347
(dp348
g13
g14
(g16
S'\x1e\x00\x00\x00\x00\x00\x00\x00'
tRp349
sg18
(lp350
sg20
I60
sg21
(lp351
I103
aI105
aI107
asbag2
(g10
g4
NtRp352
(dp353
g13
g14
(g16
S'\x1e\x00\x00\x00\x00\x00\x00\x00'
tRp354
sg18
(lp355
sg20
I61
sg21
(lp356
I83
aI84
aI86
asbag2
(g10
g4
NtRp357
(dp358
g13
g14
(g16
S'\x1c\x00\x00\x00\x00\x00\x00\x00'
tRp359
sg18
(lp360
sg20
I62
sg21
(lp361
I76
aI77
asbag2
(g10
g4
NtRp362
(dp363
g13
g14
(g16
S'\x1f\x00\x00\x00\x00\x00\x00\x00'
tRp364
sg18
(lp365
sg20
I63
sg21
(lp366
I93
aI95
asbag2
(g10
g4
NtRp367
(dp368
g13
g14
(g16
S' \x00\x00\x00\x00\x00\x00\x00'
tRp369
sg18
(lp370
sg20
I64
sg21
(lp371
I93
aI94
aI96
asbag2
(g10
g4
NtRp372
(dp373
g13
g14
(g16
S'\x1c\x00\x00\x00\x00\x00\x00\x00'
tRp374
sg18
(lp375
sg20
I65
sg21
(lp376
I83
aI84
aI87
asbag2
(g10
g4
NtRp377
(dp378
g13
g14
(g16
S'"\x00\x00\x00\x00\x00\x00\x00'
tRp379
sg18
(lp380
sg20
I66
sg21
(lp381
I89
aI91
asbag2
(g10
g4
NtRp382
(dp383
g13
g14
(g16
S'\x1b\x00\x00\x00\x00\x00\x00\x00'
tRp384
sg18
(lp385
sg20
I67
sg21
(lp386
I88
aI90
aI94
asbag2
(g10
g4
NtRp387
(dp388
g13
g14
(g16
S'\x19\x00\x00\x00\x00\x00\x00\x00'
tRp389
sg18
(lp390
sg20
I68
sg21
(lp391
I88
aI89
aI92
asbag2
(g10
g4
NtRp392
(dp393
g13
g14
(g16
S'\x18\x00\x00\x00\x00\x00\x00\x00'
tRp394
sg18
(lp395
sg20
I69
sg21
(lp396
I74
aI76
aI77
asbag2
(g10
g4
NtRp397
(dp398
g13
g14
(g16
S' \x00\x00\x00\x00\x00\x00\x00'
tRp399
sg18
(lp400
sg20
I70
sg21
(lp401
I81
aI82
aI84
asbag2
(g10
g4
NtRp402
(dp403
g13
g14
(g16
S'\x1c\x00\x00\x00\x00\x00\x00\x00'
tRp404
sg18
(lp405
sg20
I71
sg21
(lp406
I82
aI83
aI85
aI87
asbag2
(g10
g4
NtRp407
(dp408
g13
g14
(g16
S'\x1c\x00\x00\x00\x00\x00\x00\x00'
tRp409
sg18
(lp410
sg20
I72
sg21
(lp411
I85
aI86
asbag2
(g10
g4
NtRp412
(dp413
g13
g14
(g16
S'\x1c\x00\x00\x00\x00\x00\x00\x00'
tRp414
sg18
(lp415
sg20
I73
sg21
(lp416
I94
aI95
aI97
asbag2
(g10
g4
NtRp417
(dp418
g13
g14
(g16
S'\x1e\x00\x00\x00\x00\x00\x00\x00'
tRp419
sg18
(lp420
sg20
I74
sg21
(lp421
I83
aI85
aI86
asbag2
(g10
g4
NtRp422
(dp423
g13
g14
(g16
S'\x1b\x00\x00\x00\x00\x00\x00\x00'
tRp424
sg18
(lp425
sg20
I75
sg21
(lp426
I85
aI86
aI88
asbag2
(g10
g4
NtRp427
(dp428
g13
g14
(g16
S'\x17\x00\x00\x00\x00\x00\x00\x00'
tRp429
sg18
(lp430
sg20
I76
sg21
(lp431
I78
asbasg45
I29
sbtp432
a(S'm'
g2
(g3
g4
NtRp433
(dp434
g7
I46
sg8
(lp435
g2
(g10
g4
NtRp436
(dp437
g13
g14
(g16
S'%\x00\x00\x00\x00\x00\x00\x00'
tRp438
sg18
(lp439
sg20
I29
sg21
(lp440
I117
asbag2
(g10
g4
NtRp441
(dp442
g13
g14
(g16
S'#\x00\x00\x00\x00\x00\x00\x00'
tRp443
sg18
(lp444
sg20
I30
sg21
(lp445
I118
asbag2
(g10
g4
NtRp446
(dp447
g13
g14
(g16
S'!\x00\x00\x00\x00\x00\x00\x00'
tRp448
sg18
(lp449
sg20
I31
sg21
(lp450
I130
ag14
(g16
S'~\x00\x00\x00\x00\x00\x00\x00'
tRp451
asbag2
(g10
g4
NtRp452
(dp453
g13
g14
(g16
S'"\x00\x00\x00\x00\x00\x00\x00'
tRp454
sg18
(lp455
sg20
I32
sg21
(lp456
I110
aI112
asbag2
(g10
g4
NtRp457
(dp458
g13
g14
(g16
S'!\x00\x00\x00\x00\x00\x00\x00'
tRp459
sg18
(lp460
sg20
I33
sg21
(lp461
I111
ag14
(g16
S'l\x00\x00\x00\x00\x00\x00\x00'
tRp462
asbag2
(g10
g4
NtRp463
(dp464
g13
g14
(g16
S'\x1f\x00\x00\x00\x00\x00\x00\x00'
tRp465
sg18
(lp466
sg20
I34
sg21
(lp467
g14
(g16
S'c\x00\x00\x00\x00\x00\x00\x00'
tRp468
ag14
(g16
S'f\x00\x00\x00\x00\x00\x00\x00'
tRp469
asbag2
(g10
g4
NtRp470
(dp471
g13
g14
(g16
S'!\x00\x00\x00\x00\x00\x00\x00'
tRp472
sg18
(lp473
sg20
I35
sg21
(lp474
g14
(g16
S'm\x00\x00\x00\x00\x00\x00\x00'
tRp475
ag14
(g16
S'p\x00\x00\x00\x00\x00\x00\x00'
tRp476
asbag2
(g10
g4
NtRp477
(dp478
g13
g14
(g16
S'!\x00\x00\x00\x00\x00\x00\x00'
tRp479
sg18
(lp480
sg20
I36
sg21
(lp481
I109
ag14
(g16
S'i\x00\x00\x00\x00\x00\x00\x00'
tRp482
asbag2
(g10
g4
NtRp483
(dp484
g13
g14
(g16
S'\x1f\x00\x00\x00\x00\x00\x00\x00'
tRp485
sg18
(lp486
sg20
I37
sg21
(lp487
I103
ag14
(g16
S'd\x00\x00\x00\x00\x00\x00\x00'
tRp488
asbag2
(g10
g4
NtRp489
(dp490
g13
g14
(g16
S' \x00\x00\x00\x00\x00\x00\x00'
tRp491
sg18
(lp492
sg20
I38
sg21
(lp493
I109
aI110
ag14
(g16
S'i\x00\x00\x00\x00\x00\x00\x00'
tRp494
asbag2
(g10
g4
NtRp495
(dp496
g13
g14
(g16
S'\x1f\x00\x00\x00\x00\x00\x00\x00'
tRp497
sg18
(lp498
sg20
I39
sg21
(lp499
I104
ag14
(g16
S'e\x00\x00\x00\x00\x00\x00\x00'
tRp500
asbag2
(g10
g4
NtRp501
(dp502
g13
g14
(g16
S' \x00\x00\x00\x00\x00\x00\x00'
tRp503
sg18
(lp504
sg20
I40
sg21
(lp505
I106
ag14
(g16
S'f\x00\x00\x00\x00\x00\x00\x00'
tRp506
asbag2
(g10
g4
NtRp507
(dp508
g13
g14
(g16
S'\x1f\x00\x00\x00\x00\x00\x00\x00'
tRp509
sg18
(lp510
sg20
I41
sg21
(lp511
I107
asbag2
(g10
g4
NtRp512
(dp513
g13
g14
(g16
S'\x1f\x00\x00\x00\x00\x00\x00\x00'
tRp514
sg18
(lp515
sg20
I42
sg21
(lp516
I94
asbag2
(g10
g4
NtRp517
(dp518
g13
g14
(g16
S'\x1f\x00\x00\x00\x00\x00\x00\x00'
tRp519
sg18
(lp520
sg20
I43
sg21
(lp521
I101
asbag2
(g10
g4
NtRp522
(dp523
g13
g14
(g16
S'!\x00\x00\x00\x00\x00\x00\x00'
tRp524
sg18
(lp525
sg20
I44
sg21
(lp526
I116
asbag2
(g10
g4
NtRp527
(dp528
g13
g14
(g16
S'#\x00\x00\x00\x00\x00\x00\x00'
tRp529
sg18
(lp530
sg20
I45
sg21
(lp531
I95
asbag2
(g10
g4
NtRp532
(dp533
g13
g14
(g16
S'#\x00\x00\x00\x00\x00\x00\x00'
tRp534
sg18
(lp535
sg20
I46
sg21
(lp536
I115
asbasg45
I29
sbtp537
a(S'r'
g2
(g3
g4
NtRp538
(dp539
g7
I32
sg8
(lp540
g2
(g10
g4
NtRp541
(dp542
g13
g14
(g16
S'(\x00\x00\x00\x00\x00\x00\x00'
tRp543
sg18
(lp544
sg20
I29
sg21
(lp545
I121
aI125
asbag2
(g10
g4
NtRp546
(dp547
g13
g14
(g16
S'%\x00\x00\x00\x00\x00\x00\x00'
tRp548
sg18
(lp549
sg20
I30
sg21
(lp550
I119
aI122
asbag2
(g10
g4
NtRp551
(dp552
g13
g14
(g16
S'$\x00\x00\x00\x00\x00\x00\x00'
tRp553
sg18
(lp554
sg20
I31
sg21
(lp555
I133
aI138
asbag2
(g10
g4
NtRp556
(dp557
g13
g14
(g16
S'$\x00\x00\x00\x00\x00\x00\x00'
tRp558
sg18
(lp559
sg20
I32
sg21
(lp560
I120
aI121
ag14
(g16
S'u\x00\x00\x00\x00\x00\x00\x00'
tRp561
asbasg45
I29
sbtp562
a(S'r'
g2
(g3
g4
NtRp563
(dp564
g7
I74
sg8
(lp565
g2
(g10
g4
NtRp566
(dp567
g13
g14
(g16
S')\x00\x00\x00\x00\x00\x00\x00'
tRp568
sg18
(lp569
sg20
I31
sg21
(lp570
I146
aI149
aI150
asbag2
(g10
g4
NtRp571
(dp572
g13
g14
(g16
S')\x00\x00\x00\x00\x00\x00\x00'
tRp573
sg18
(lp574
sg20
I32
sg21
(lp575
I132
aI135
aI136
aI137
asbag2
(g10
g4
NtRp576
(dp577
g13
g14
(g16
S'(\x00\x00\x00\x00\x00\x00\x00'
tRp578
sg18
(lp579
sg20
I33
sg21
(lp580
I124
aI127
aI128
asbag2
(g10
g4
NtRp581
(dp582
g13
g14
(g16
S"'\x00\x00\x00\x00\x00\x00\x00"
tRp583
sg18
(lp584
sg20
I34
sg21
(lp585
I117
aI121
aI122
aI126
asbag2
(g10
g4
NtRp586
(dp587
g13
g14
(g16
S'*\x00\x00\x00\x00\x00\x00\x00'
tRp588
sg18
(lp589
sg20
I35
sg21
(lp590
I131
aI134
aI137
asbag2
(g10
g4
NtRp591
(dp592
g13
g14
(g16
S'(\x00\x00\x00\x00\x00\x00\x00'
tRp593
sg18
(lp594
sg20
I36
sg21
(lp595
I125
aI126
aI128
aI130
asbag2
(g10
g4
NtRp596
(dp597
g13
g14
(g16
S"'\x00\x00\x00\x00\x00\x00\x00"
tRp598
sg18
(lp599
sg20
I37
sg21
(lp600
I121
aI123
aI127
asbag2
(g10
g4
NtRp601
(dp602
g13
g14
(g16
S'*\x00\x00\x00\x00\x00\x00\x00'
tRp603
sg18
(lp604
sg20
I38
sg21
(lp605
I130
aI131
aI137
asbag2
(g10
g4
NtRp606
(dp607
g13
g14
(g16
S"'\x00\x00\x00\x00\x00\x00\x00"
tRp608
sg18
(lp609
sg20
I39
sg21
(lp610
I124
aI125
aI127
asbag2
(g10
g4
NtRp611
(dp612
g13
g14
(g16
S"'\x00\x00\x00\x00\x00\x00\x00"
tRp613
sg18
(lp614
sg20
I40
sg21
(lp615
I126
aI127
aI133
asbag2
(g10
g4
NtRp616
(dp617
g13
g14
(g16
S'(\x00\x00\x00\x00\x00\x00\x00'
tRp618
sg18
(lp619
sg20
I41
sg21
(lp620
I123
aI124
aI125
aI129
asbag2
(g10
g4
NtRp621
(dp622
g13
g14
(g16
S"'\x00\x00\x00\x00\x00\x00\x00"
tRp623
sg18
(lp624
sg20
I42
sg21
(lp625
I113
aI116
aI118
asbag2
(g10
g4
NtRp626
(dp627
g13
g14
(g16
S'(\x00\x00\x00\x00\x00\x00\x00'
tRp628
sg18
(lp629
sg20
I43
sg21
(lp630
I119
aI120
aI122
asbag2
(g10
g4
NtRp631
(dp632
g13
g14
(g16
S'*\x00\x00\x00\x00\x00\x00\x00'
tRp633
sg18
(lp634
sg20
I44
sg21
(lp635
I136
aI138
aI139
aI140
aI141
aI143
asbag2
(g10
g4
NtRp636
(dp637
g13
g14
(g16
S'+\x00\x00\x00\x00\x00\x00\x00'
tRp638
sg18
(lp639
sg20
I45
sg21
(lp640
I110
aI112
aI113
aI114
aI116
asbag2
(g10
g4
NtRp641
(dp642
g13
g14
(g16
S'*\x00\x00\x00\x00\x00\x00\x00'
tRp643
sg18
(lp644
sg20
I46
sg21
(lp645
I131
aI133
aI136
aI138
asbag2
(g10
g4
NtRp646
(dp647
g13
g14
(g16
S'*\x00\x00\x00\x00\x00\x00\x00'
tRp648
sg18
(lp649
sg20
I47
sg21
(lp650
I130
aI135
aI136
aI140
asbag2
(g10
g4
NtRp651
(dp652
g13
g14
(g16
S'(\x00\x00\x00\x00\x00\x00\x00'
tRp653
sg18
(lp654
sg20
I48
sg21
(lp655
I129
aI131
aI132
aI133
aI136
aI138
asbag2
(g10
g4
NtRp656
(dp657
g13
g14
(g16
S"'\x00\x00\x00\x00\x00\x00\x00"
tRp658
sg18
(lp659
sg20
I49
sg21
(lp660
I114
aI117
aI119
aI122
asbag2
(g10
g4
NtRp661
(dp662
g13
g14
(g16
S'*\x00\x00\x00\x00\x00\x00\x00'
tRp663
sg18
(lp664
sg20
I50
sg21
(lp665
I115
aI120
aI122
asbag2
(g10
g4
NtRp666
(dp667
g13
g14
(g16
S'&\x00\x00\x00\x00\x00\x00\x00'
tRp668
sg18
(lp669
sg20
I51
sg21
(lp670
I102
aI108
ag14
(g16
S'i\x00\x00\x00\x00\x00\x00\x00'
tRp671
asbag2
(g10
g4
NtRp672
(dp673
g13
g14
(g16
S'+\x00\x00\x00\x00\x00\x00\x00'
tRp674
sg18
(lp675
sg20
I52
sg21
(lp676
I114
aI118
ag14
(g16
S't\x00\x00\x00\x00\x00\x00\x00'
tRp677
asbag2
(g10
g4
NtRp678
(dp679
g13
g14
(g16
S'&\x00\x00\x00\x00\x00\x00\x00'
tRp680
sg18
(lp681
sg20
I53
sg21
(lp682
I111
aI112
aI116
aI121
asbag2
(g10
g4
NtRp683
(dp684
g13
g14
(g16
S')\x00\x00\x00\x00\x00\x00\x00'
tRp685
sg18
(lp686
sg20
I54
sg21
(lp687
I124
aI129
aI131
aI132
asbag2
(g10
g4
NtRp688
(dp689
g13
g14
(g16
S'*\x00\x00\x00\x00\x00\x00\x00'
tRp690
sg18
(lp691
sg20
I55
sg21
(lp692
I114
aI120
aI122
asbag2
(g10
g4
NtRp693
(dp694
g13
g14
(g16
S',\x00\x00\x00\x00\x00\x00\x00'
tRp695
sg18
(lp696
sg20
I56
sg21
(lp697
I116
aI123
aI125
asbag2
(g10
g4
NtRp698
(dp699
g13
g14
(g16
S')\x00\x00\x00\x00\x00\x00\x00'
tRp700
sg18
(lp701
sg20
I57
sg21
(lp702
I125
aI128
aI130
aI133
asbag2
(g10
g4
NtRp703
(dp704
g13
g14
(g16
S'(\x00\x00\x00\x00\x00\x00\x00'
tRp705
sg18
(lp706
sg20
I58
sg21
(lp707
I112
aI116
aI120
asbag2
(g10
g4
NtRp708
(dp709
g13
g14
(g16
S'$\x00\x00\x00\x00\x00\x00\x00'
tRp710
sg18
(lp711
sg20
I59
sg21
(lp712
I125
aI130
aI136
asbag2
(g10
g4
NtRp713
(dp714
g13
g14
(g16
S')\x00\x00\x00\x00\x00\x00\x00'
tRp715
sg18
(lp716
sg20
I60
sg21
(lp717
I130
aI134
aI137
aI138
aI140
asbag2
(g10
g4
NtRp718
(dp719
g13
g14
(g16
S'*\x00\x00\x00\x00\x00\x00\x00'
tRp720
sg18
(lp721
sg20
I61
sg21
(lp722
I109
aI111
aI114
asbag2
(g10
g4
NtRp723
(dp724
g13
g14
(g16
S'&\x00\x00\x00\x00\x00\x00\x00'
tRp725
sg18
(lp726
sg20
I62
sg21
(lp727
I102
aI105
aI108
asbag2
(g10
g4
NtRp728
(dp729
g13
g14
(g16
S')\x00\x00\x00\x00\x00\x00\x00'
tRp730
sg18
(lp731
sg20
I63
sg21
(lp732
I117
aI121
aI124
aI125
asbag2
(g10
g4
NtRp733
(dp734
g13
g14
(g16
S'*\x00\x00\x00\x00\x00\x00\x00'
tRp735
sg18
(lp736
sg20
I64
sg21
(lp737
I116
aI120
asbag2
(g10
g4
NtRp738
(dp739
g13
g14
(g16
S'%\x00\x00\x00\x00\x00\x00\x00'
tRp740
sg18
(lp741
sg20
I65
sg21
(lp742
I106
aI107
aI110
asbag2
(g10
g4
NtRp743
(dp744
g13
g14
(g16
S'/\x00\x00\x00\x00\x00\x00\x00'
tRp745
sg18
(lp746
sg20
I66
sg21
(lp747
I111
aI113
aI115
aI119
asbag2
(g10
g4
NtRp748
(dp749
g13
g14
(g16
S'%\x00\x00\x00\x00\x00\x00\x00'
tRp750
sg18
(lp751
sg20
I67
sg21
(lp752
I119
aI120
aI121
asbag2
(g10
g4
NtRp753
(dp754
g13
g14
(g16
S'%\x00\x00\x00\x00\x00\x00\x00'
tRp755
sg18
(lp756
sg20
I68
sg21
(lp757
I116
aI117
asbag2
(g10
g4
NtRp758
(dp759
g13
g14
(g16
S'$\x00\x00\x00\x00\x00\x00\x00'
tRp760
sg18
(lp761
sg20
I69
sg21
(lp762
I98
aI99
aI102
ag14
(g16
S'j\x00\x00\x00\x00\x00\x00\x00'
tRp763
asbag2
(g10
g4
NtRp764
(dp765
g13
g14
(g16
S'*\x00\x00\x00\x00\x00\x00\x00'
tRp766
sg18
(lp767
sg20
I70
sg21
(lp768
I100
aI101
aI105
ag14
(g16
S'm\x00\x00\x00\x00\x00\x00\x00'
tRp769
asbag2
(g10
g4
NtRp770
(dp771
g13
g14
(g16
S"'\x00\x00\x00\x00\x00\x00\x00"
tRp772
sg18
(lp773
sg20
I71
sg21
(lp774
I106
aI111
aI123
asbag2
(g10
g4
NtRp775
(dp776
g13
g14
(g16
S'(\x00\x00\x00\x00\x00\x00\x00'
tRp777
sg18
(lp778
sg20
I72
sg21
(lp779
I106
aI107
aI111
aI114
asbag2
(g10
g4
NtRp780
(dp781
g13
g14
(g16
S"'\x00\x00\x00\x00\x00\x00\x00"
tRp782
sg18
(lp783
sg20
I73
sg21
(lp784
I121
aI123
ag14
(g16
S'\x81\x00\x00\x00\x00\x00\x00\x00'
tRp785
asbag2
(g10
g4
NtRp786
(dp787
g13
g14
(g16
S'*\x00\x00\x00\x00\x00\x00\x00'
tRp788
sg18
(lp789
sg20
I74
sg21
(lp790
I114
aI115
ag14
(g16
S'w\x00\x00\x00\x00\x00\x00\x00'
tRp791
asbasg45
I31
sbtp792
a(S'r'
g2
(g3
g4
NtRp793
(dp794
g7
I61
sg8
(lp795
g2
(g10
g4
NtRp796
(dp797
g13
g14
(g16
S'#\x00\x00\x00\x00\x00\x00\x00'
tRp798
sg18
(lp799
sg20
I37
sg21
(lp800
I108
aI111
aI112
asbag2
(g10
g4
NtRp801
(dp802
g13
g14
(g16
S'#\x00\x00\x00\x00\x00\x00\x00'
tRp803
sg18
(lp804
sg20
I38
sg21
(lp805
I115
aI118
ag14
(g16
S'u\x00\x00\x00\x00\x00\x00\x00'
tRp806
asbag2
(g10
g4
NtRp807
(dp808
g13
g14
(g16
S'"\x00\x00\x00\x00\x00\x00\x00'
tRp809
sg18
(lp810
sg20
I39
sg21
(lp811
I105
aI110
aI112
asbag2
(g10
g4
NtRp812
(dp813
g13
g14
(g16
S'"\x00\x00\x00\x00\x00\x00\x00'
tRp814
sg18
(lp815
sg20
I40
sg21
(lp816
I107
aI111
asbag2
(g10
g4
NtRp817
(dp818
g13
g14
(g16
S'"\x00\x00\x00\x00\x00\x00\x00'
tRp819
sg18
(lp820
sg20
I41
sg21
(lp821
I108
aI112
asbag2
(g10
g4
NtRp822
(dp823
g13
g14
(g16
S'"\x00\x00\x00\x00\x00\x00\x00'
tRp824
sg18
(lp825
sg20
I42
sg21
(lp826
I99
aI100
aI103
aI105
asbag2
(g10
g4
NtRp827
(dp828
g13
g14
(g16
S'!\x00\x00\x00\x00\x00\x00\x00'
tRp829
sg18
(lp830
sg20
I43
sg21
(lp831
I105
aI107
aI109
asbag2
(g10
g4
NtRp832
(dp833
g13
g14
(g16
S'#\x00\x00\x00\x00\x00\x00\x00'
tRp834
sg18
(lp835
sg20
I44
sg21
(lp836
I118
aI122
aI126
asbag2
(g10
g4
NtRp837
(dp838
g13
g14
(g16
S'&\x00\x00\x00\x00\x00\x00\x00'
tRp839
sg18
(lp840
sg20
I45
sg21
(lp841
I97
aI98
aI101
asbag2
(g10
g4
NtRp842
(dp843
g13
g14
(g16
S'%\x00\x00\x00\x00\x00\x00\x00'
tRp844
sg18
(lp845
sg20
I46
sg21
(lp846
I116
aI119
aI121
aI122
asbag2
(g10
g4
NtRp847
(dp848
g13
g14
(g16
S'%\x00\x00\x00\x00\x00\x00\x00'
tRp849
sg18
(lp850
sg20
I47
sg21
(lp851
I113
aI115
aI118
asbag2
(g10
g4
NtRp852
(dp853
g13
g14
(g16
S'"\x00\x00\x00\x00\x00\x00\x00'
tRp854
sg18
(lp855
sg20
I48
sg21
(lp856
I112
aI114
aI116
aI118
asbag2
(g10
g4
NtRp857
(dp858
g13
g14
(g16
S'!\x00\x00\x00\x00\x00\x00\x00'
tRp859
sg18
(lp860
sg20
I49
sg21
(lp861
I97
aI99
aI100
aI103
asbag2
(g10
g4
NtRp862
(dp863
g13
g14
(g16
S'#\x00\x00\x00\x00\x00\x00\x00'
tRp864
sg18
(lp865
sg20
I50
sg21
(lp866
I102
aI103
asbag2
(g10
g4
NtRp867
(dp868
g13
g14
(g16
S' \x00\x00\x00\x00\x00\x00\x00'
tRp869
sg18
(lp870
sg20
I51
sg21
(lp871
I91
asbag2
(g10
g4
NtRp872
(dp873
g13
g14
(g16
S'%\x00\x00\x00\x00\x00\x00\x00'
tRp874
sg18
(lp875
sg20
I52
sg21
(lp876
I101
aI105
asbag2
(g10
g4
NtRp877
(dp878
g13
g14
(g16
S'"\x00\x00\x00\x00\x00\x00\x00'
tRp879
sg18
(lp880
sg20
I53
sg21
(lp881
I100
aI105
asbag2
(g10
g4
NtRp882
(dp883
g13
g14
(g16
S'%\x00\x00\x00\x00\x00\x00\x00'
tRp884
sg18
(lp885
sg20
I54
sg21
(lp886
I110
aI114
asbag2
(g10
g4
NtRp887
(dp888
g13
g14
(g16
S'%\x00\x00\x00\x00\x00\x00\x00'
tRp889
sg18
(lp890
sg20
I55
sg21
(lp891
I106
aI108
asbag2
(g10
g4
NtRp892
(dp893
g13
g14
(g16
S"'\x00\x00\x00\x00\x00\x00\x00"
tRp894
sg18
(lp895
sg20
I56
sg21
(lp896
I105
asbag2
(g10
g4
NtRp897
(dp898
g13
g14
(g16
S'$\x00\x00\x00\x00\x00\x00\x00'
tRp899
sg18
(lp900
sg20
I57
sg21
(lp901
I114
aI115
aI116
asbag2
(g10
g4
NtRp902
(dp903
g13
g14
(g16
S'$\x00\x00\x00\x00\x00\x00\x00'
tRp904
sg18
(lp905
sg20
I58
sg21
(lp906
I103
asbag2
(g10
g4
NtRp907
(dp908
g13
g14
(g16
S' \x00\x00\x00\x00\x00\x00\x00'
tRp909
sg18
(lp910
sg20
I59
sg21
(lp911
I115
aI116
aI117
aI120
asbag2
(g10
g4
NtRp912
(dp913
g13
g14
(g16
S'$\x00\x00\x00\x00\x00\x00\x00'
tRp914
sg18
(lp915
sg20
I60
sg21
(lp916
I120
aI121
aI123
asbag2
(g10
g4
NtRp917
(dp918
g13
g14
(g16
S"'\x00\x00\x00\x00\x00\x00\x00"
tRp919
sg18
(lp920
sg20
I61
sg21
(lp921
I101
aI103
asbasg45
I37
sbtp922
a(S'r'
g2
(g3
g4
NtRp923
(dp924
g7
I58
sg8
(lp925
g2
(g10
g4
NtRp926
(dp927
g13
g14
(g16
S'\x0b\x00\x00\x00\x00\x00\x00\x00'
tRp928
sg18
(lp929
sg20
I38
sg21
(lp930
I32
aI34
aI35
aI38
asbag2
(g10
g4
NtRp931
(dp932
g13
g14
(g16
S'\n\x00\x00\x00\x00\x00\x00\x00'
tRp933
sg18
(lp934
sg20
I39
sg21
(lp935
I21
aI25
aI27
asbag2
(g10
g4
NtRp936
(dp937
g13
g14
(g16
S'\n\x00\x00\x00\x00\x00\x00\x00'
tRp938
sg18
(lp939
sg20
I40
sg21
(lp940
I21
aI27
aI28
asbag2
(g10
g4
NtRp941
(dp942
g13
g14
(g16
S'\x08\x00\x00\x00\x00\x00\x00\x00'
tRp943
sg18
(lp944
sg20
I41
sg21
(lp945
I25
aI27
aI28
asbag2
(g10
g4
NtRp946
(dp947
g13
g14
(g16
S'\x08\x00\x00\x00\x00\x00\x00\x00'
tRp948
sg18
(lp949
sg20
I42
sg21
(lp950
I23
aI27
aI28
asbag2
(g10
g4
NtRp951
(dp952
g13
g14
(g16
S'\x08\x00\x00\x00\x00\x00\x00\x00'
tRp953
sg18
(lp954
sg20
I43
sg21
(lp955
I23
aI26
asbag2
(g10
g4
NtRp956
(dp957
g13
g14
(g16
S'\x07\x00\x00\x00\x00\x00\x00\x00'
tRp958
sg18
(lp959
sg20
I44
sg21
(lp960
I30
aI31
aI33
asbag2
(g10
g4
NtRp961
(dp962
g13
g14
(g16
S'\t\x00\x00\x00\x00\x00\x00\x00'
tRp963
sg18
(lp964
sg20
I45
sg21
(lp965
I20
aI23
aI24
asbag2
(g10
g4
NtRp966
(dp967
g13
g14
(g16
S'\t\x00\x00\x00\x00\x00\x00\x00'
tRp968
sg18
(lp969
sg20
I46
sg21
(lp970
I25
aI32
aI34
aI36
asbag2
(g10
g4
NtRp971
(dp972
g13
g14
(g16
S'\t\x00\x00\x00\x00\x00\x00\x00'
tRp973
sg18
(lp974
sg20
I47
sg21
(lp975
I26
aI34
aI35
asbag2
(g10
g4
NtRp976
(dp977
g13
g14
(g16
S'\x08\x00\x00\x00\x00\x00\x00\x00'
tRp978
sg18
(lp979
sg20
I48
sg21
(lp980
I21
aI27
aI29
asbag2
(g10
g4
NtRp981
(dp982
g13
g14
(g16
S'\x08\x00\x00\x00\x00\x00\x00\x00'
tRp983
sg18
(lp984
sg20
I49
sg21
(lp985
I18
aI20
aI21
aI22
asbag2
(g10
g4
NtRp986
(dp987
g13
g14
(g16
S'\x08\x00\x00\x00\x00\x00\x00\x00'
tRp988
sg18
(lp989
sg20
I50
sg21
(lp990
I20
aI26
aI27
aI31
asbag2
(g10
g4
NtRp991
(dp992
g13
g14
(g16
S'\x08\x00\x00\x00\x00\x00\x00\x00'
tRp993
sg18
(lp994
sg20
I51
sg21
(lp995
I19
aI24
aI25
asbag2
(g10
g4
NtRp996
(dp997
g13
g14
(g16
S'\t\x00\x00\x00\x00\x00\x00\x00'
tRp998
sg18
(lp999
sg20
I52
sg21
(lp1000
I18
aI28
aI29
aI31
asbag2
(g10
g4
NtRp1001
(dp1002
g13
g14
(g16
S'\x08\x00\x00\x00\x00\x00\x00\x00'
tRp1003
sg18
(lp1004
sg20
I53
sg21
(lp1005
I20
aI27
asbag2
(g10
g4
NtRp1006
(dp1007
g13
g14
(g16
S'\x08\x00\x00\x00\x00\x00\x00\x00'
tRp1008
sg18
(lp1009
sg20
I54
sg21
(lp1010
I22
aI30
aI33
asbag2
(g10
g4
NtRp1011
(dp1012
g13
g14
(g16
S'\x08\x00\x00\x00\x00\x00\x00\x00'
tRp1013
sg18
(lp1014
sg20
I55
sg21
(lp1015
I22
aI29
asbag2
(g10
g4
NtRp1016
(dp1017
g13
g14
(g16
S'\t\x00\x00\x00\x00\x00\x00\x00'
tRp1018
sg18
(lp1019
sg20
I56
sg21
(lp1020
I22
aI30
asbag2
(g10
g4
NtRp1021
(dp1022
g13
g14
(g16
S'\x08\x00\x00\x00\x00\x00\x00\x00'
tRp1023
sg18
(lp1024
sg20
I57
sg21
(lp1025
I21
aI30
aI32
asbag2
(g10
g4
NtRp1026
(dp1027
g13
g14
(g16
S'\t\x00\x00\x00\x00\x00\x00\x00'
tRp1028
sg18
(lp1029
sg20
I58
sg21
(lp1030
I19
aI25
aI26
asbasg45
I38
sbtp1031
a(S'r'
g2
(g3
g4
NtRp1032
(dp1033
g7
I48
sg8
(lp1034
g2
(g10
g4
NtRp1035
(dp1036
g13
g14
(g16
S'\x0e\x00\x00\x00\x00\x00\x00\x00'
tRp1037
sg18
(lp1038
sg20
I44
sg21
(lp1039
I65
aI70
asbag2
(g10
g4
NtRp1040
(dp1041
g13
g14
(g16
S'\x10\x00\x00\x00\x00\x00\x00\x00'
tRp1042
sg18
(lp1043
sg20
I45
sg21
(lp1044
I55
asbag2
(g10
g4
NtRp1045
(dp1046
g13
g14
(g16
S'\x11\x00\x00\x00\x00\x00\x00\x00'
tRp1047
sg18
(lp1048
sg20
I46
sg21
(lp1049
I62
aI70
asbag2
(g10
g4
NtRp1050
(dp1051
g13
g14
(g16
S'\x12\x00\x00\x00\x00\x00\x00\x00'
tRp1052
sg18
(lp1053
sg20
I47
sg21
(lp1054
I64
aI69
asbag2
(g10
g4
NtRp1055
(dp1056
g13
g14
(g16
S'\x11\x00\x00\x00\x00\x00\x00\x00'
tRp1057
sg18
(lp1058
sg20
I48
sg21
(lp1059
I53
aI60
asbasg45
I44
sbtp1060
a(S'm'
g2
(g3
g4
NtRp1061
(dp1062
g7
I62
sg8
(lp1063
g2
(g10
g4
NtRp1064
(dp1065
g13
g14
(g16
S"'\x00\x00\x00\x00\x00\x00\x00"
tRp1066
sg18
(lp1067
sg20
I48
sg21
(lp1068
I125
aI127
asbag2
(g10
g4
NtRp1069
(dp1070
g13
g14
(g16
S'&\x00\x00\x00\x00\x00\x00\x00'
tRp1071
sg18
(lp1072
sg20
I49
sg21
(lp1073
I112
aI113
asbag2
(g10
g4
NtRp1074
(dp1075
g13
g14
(g16
S')\x00\x00\x00\x00\x00\x00\x00'
tRp1076
sg18
(lp1077
sg20
I50
sg21
(lp1078
I113
aI114
aI121
asbag2
(g10
g4
NtRp1079
(dp1080
g13
g14
(g16
S'%\x00\x00\x00\x00\x00\x00\x00'
tRp1081
sg18
(lp1082
sg20
I51
sg21
(lp1083
I101
aI103
aI107
asbag2
(g10
g4
NtRp1084
(dp1085
g13
g14
(g16
S',\x00\x00\x00\x00\x00\x00\x00'
tRp1086
sg18
(lp1087
sg20
I52
sg21
(lp1088
I117
aI119
aI120
asbag2
(g10
g4
NtRp1089
(dp1090
g13
g14
(g16
S"'\x00\x00\x00\x00\x00\x00\x00"
tRp1091
sg18
(lp1092
sg20
I53
sg21
(lp1093
I114
aI115
aI117
asbag2
(g10
g4
NtRp1094
(dp1095
g13
g14
(g16
S'*\x00\x00\x00\x00\x00\x00\x00'
tRp1096
sg18
(lp1097
sg20
I54
sg21
(lp1098
I125
aI127
asbag2
(g10
g4
NtRp1099
(dp1100
g13
g14
(g16
S'+\x00\x00\x00\x00\x00\x00\x00'
tRp1101
sg18
(lp1102
sg20
I55
sg21
(lp1103
I118
asbag2
(g10
g4
NtRp1104
(dp1105
g13
g14
(g16
S'.\x00\x00\x00\x00\x00\x00\x00'
tRp1106
sg18
(lp1107
sg20
I56
sg21
(lp1108
I121
aI126
asbag2
(g10
g4
NtRp1109
(dp1110
g13
g14
(g16
S',\x00\x00\x00\x00\x00\x00\x00'
tRp1111
sg18
(lp1112
sg20
I57
sg21
(lp1113
I124
aI136
ag14
(g16
S'z\x00\x00\x00\x00\x00\x00\x00'
tRp1114
asbag2
(g10
g4
NtRp1115
(dp1116
g13
g14
(g16
S'+\x00\x00\x00\x00\x00\x00\x00'
tRp1117
sg18
(lp1118
sg20
I58
sg21
(lp1119
I115
aI123
asbag2
(g10
g4
NtRp1120
(dp1121
g13
g14
(g16
S"'\x00\x00\x00\x00\x00\x00\x00"
tRp1122
sg18
(lp1123
sg20
I59
sg21
(lp1124
I129
aI139
asbag2
(g10
g4
NtRp1125
(dp1126
g13
g14
(g16
S',\x00\x00\x00\x00\x00\x00\x00'
tRp1127
sg18
(lp1128
sg20
I60
sg21
(lp1129
I131
aI144
asbag2
(g10
g4
NtRp1130
(dp1131
g13
g14
(g16
S'-\x00\x00\x00\x00\x00\x00\x00'
tRp1132
sg18
(lp1133
sg20
I61
sg21
(lp1134
I113
aI120
asbag2
(g10
g4
NtRp1135
(dp1136
g13
g14
(g16
S')\x00\x00\x00\x00\x00\x00\x00'
tRp1137
sg18
(lp1138
sg20
I62
sg21
(lp1139
I116
asbasg45
I48
sbtp1140
a(S'm'
g2
(g3
g4
NtRp1141
(dp1142
g7
I54
sg8
(lp1143
g2
(g10
g4
NtRp1144
(dp1145
g13
g14
(g16
S'!\x00\x00\x00\x00\x00\x00\x00'
tRp1146
sg18
(lp1147
sg20
I50
sg21
(lp1148
I99
asbag2
(g10
g4
NtRp1149
(dp1150
g13
g14
(g16
S'\x1e\x00\x00\x00\x00\x00\x00\x00'
tRp1151
sg18
(lp1152
sg20
I51
sg21
(lp1153
I90
asbag2
(g10
g4
NtRp1154
(dp1155
g13
g14
(g16
S'#\x00\x00\x00\x00\x00\x00\x00'
tRp1156
sg18
(lp1157
sg20
I52
sg21
(lp1158
I98
asbag2
(g10
g4
NtRp1159
(dp1160
g13
g14
(g16
S'\x1f\x00\x00\x00\x00\x00\x00\x00'
tRp1161
sg18
(lp1162
sg20
I53
sg21
(lp1163
I99
asbag2
(g10
g4
NtRp1164
(dp1165
g13
g14
(g16
S'"\x00\x00\x00\x00\x00\x00\x00'
tRp1166
sg18
(lp1167
sg20
I54
sg21
(lp1168
I107
asbasg45
I50
sbtp1169
a(S'm'
g2
(g3
g4
NtRp1170
(dp1171
g7
I64
sg8
(lp1172
g2
(g10
g4
NtRp1173
(dp1174
g13
g14
(g16
S'%\x00\x00\x00\x00\x00\x00\x00'
tRp1175
sg18
(lp1176
sg20
I56
sg21
(lp1177
sbag2
(g10
g4
NtRp1178
(dp1179
g13
g14
(g16
S'"\x00\x00\x00\x00\x00\x00\x00'
tRp1180
sg18
(lp1181
sg20
I57
sg21
(lp1182
I110
asbag2
(g10
g4
NtRp1183
(dp1184
g13
g14
(g16
S'"\x00\x00\x00\x00\x00\x00\x00'
tRp1185
sg18
(lp1186
sg20
I58
sg21
(lp1187
g14
(g16
S'b\x00\x00\x00\x00\x00\x00\x00'
tRp1188
ag14
(g16
S'h\x00\x00\x00\x00\x00\x00\x00'
tRp1189
asbag2
(g10
g4
NtRp1190
(dp1191
g13
g14
(g16
S'\x1e\x00\x00\x00\x00\x00\x00\x00'
tRp1192
sg18
(lp1193
sg20
I59
sg21
(lp1194
I114
ag14
(g16
S'j\x00\x00\x00\x00\x00\x00\x00'
tRp1195
asbag2
(g10
g4
NtRp1196
(dp1197
g13
g14
(g16
S'"\x00\x00\x00\x00\x00\x00\x00'
tRp1198
sg18
(lp1199
sg20
I60
sg21
(lp1200
I116
aI118
ag14
(g16
S'm\x00\x00\x00\x00\x00\x00\x00'
tRp1201
asbag2
(g10
g4
NtRp1202
(dp1203
g13
g14
(g16
S'!\x00\x00\x00\x00\x00\x00\x00'
tRp1204
sg18
(lp1205
sg20
I61
sg21
(lp1206
I96
ag14
(g16
S'Z\x00\x00\x00\x00\x00\x00\x00'
tRp1207
asbag2
(g10
g4
NtRp1208
(dp1209
g13
g14
(g16
S'\x1f\x00\x00\x00\x00\x00\x00\x00'
tRp1210
sg18
(lp1211
sg20
I62
sg21
(lp1212
I83
aI86
asbag2
(g10
g4
NtRp1213
(dp1214
g13
g14
(g16
S'"\x00\x00\x00\x00\x00\x00\x00'
tRp1215
sg18
(lp1216
sg20
I63
sg21
(lp1217
I104
asbag2
(g10
g4
NtRp1218
(dp1219
g13
g14
(g16
S'$\x00\x00\x00\x00\x00\x00\x00'
tRp1220
sg18
(lp1221
sg20
I64
sg21
(lp1222
I105
asbasg45
I56
sbtp1223
a(S'r'
g2
(g3
g4
NtRp1224
(dp1225
g7
I67
sg8
(lp1226
g2
(g10
g4
NtRp1227
(dp1228
g13
g14
(g16
S'\x12\x00\x00\x00\x00\x00\x00\x00'
tRp1229
sg18
(lp1230
sg20
I56
sg21
(lp1231
I49
aI58
asbag2
(g10
g4
NtRp1232
(dp1233
g13
g14
(g16
S'\x11\x00\x00\x00\x00\x00\x00\x00'
tRp1234
sg18
(lp1235
sg20
I57
sg21
(lp1236
I50
aI59
aI63
asbag2
(g10
g4
NtRp1237
(dp1238
g13
g14
(g16
S'\x11\x00\x00\x00\x00\x00\x00\x00'
tRp1239
sg18
(lp1240
sg20
I58
sg21
(lp1241
I42
aI56
aI57
asbag2
(g10
g4
NtRp1242
(dp1243
g13
g14
(g16
S'\x10\x00\x00\x00\x00\x00\x00\x00'
tRp1244
sg18
(lp1245
sg20
I59
sg21
(lp1246
I51
aI61
aI64
asbag2
(g10
g4
NtRp1247
(dp1248
g13
g14
(g16
S'\x11\x00\x00\x00\x00\x00\x00\x00'
tRp1249
sg18
(lp1250
sg20
I60
sg21
(lp1251
I53
aI66
asbag2
(g10
g4
NtRp1252
(dp1253
g13
g14
(g16
S'\x11\x00\x00\x00\x00\x00\x00\x00'
tRp1254
sg18
(lp1255
sg20
I61
sg21
(lp1256
I52
aI61
asbag2
(g10
g4
NtRp1257
(dp1258
g13
g14
(g16
S'\x10\x00\x00\x00\x00\x00\x00\x00'
tRp1259
sg18
(lp1260
sg20
I62
sg21
(lp1261
I41
aI48
asbag2
(g10
g4
NtRp1262
(dp1263
g13
g14
(g16
S'\x11\x00\x00\x00\x00\x00\x00\x00'
tRp1264
sg18
(lp1265
sg20
I63
sg21
(lp1266
I51
aI65
aI66
asbag2
(g10
g4
NtRp1267
(dp1268
g13
g14
(g16
S'\x14\x00\x00\x00\x00\x00\x00\x00'
tRp1269
sg18
(lp1270
sg20
I64
sg21
(lp1271
I47
aI58
aI61
asbag2
(g10
g4
NtRp1272
(dp1273
g13
g14
(g16
S'\x11\x00\x00\x00\x00\x00\x00\x00'
tRp1274
sg18
(lp1275
sg20
I65
sg21
(lp1276
I46
aI57
aI58
asbag2
(g10
g4
NtRp1277
(dp1278
g13
g14
(g16
S'\x13\x00\x00\x00\x00\x00\x00\x00'
tRp1279
sg18
(lp1280
sg20
I66
sg21
(lp1281
I46
aI59
aI60
asbag2
(g10
g4
NtRp1282
(dp1283
g13
g14
(g16
S'\x0e\x00\x00\x00\x00\x00\x00\x00'
tRp1284
sg18
(lp1285
sg20
I67
sg21
(lp1286
I41
aI52
aI53
asbasg45
I56
sbtp1287
a(S'm'
g2
(g3
g4
NtRp1288
(dp1289
g7
I60
sg8
(lp1290
g2
(g10
g4
NtRp1291
(dp1292
g13
g14
(g16
S'\r\x00\x00\x00\x00\x00\x00\x00'
tRp1293
sg18
(lp1294
sg20
I57
sg21
(lp1295
I42
aI47
ag14
(g16
S'7\x00\x00\x00\x00\x00\x00\x00'
tRp1296
asbag2
(g10
g4
NtRp1297
(dp1298
g13
g14
(g16
S'\r\x00\x00\x00\x00\x00\x00\x00'
tRp1299
sg18
(lp1300
sg20
I58
sg21
(lp1301
I35
aI38
asbag2
(g10
g4
NtRp1302
(dp1303
g13
g14
(g16
S'\r\x00\x00\x00\x00\x00\x00\x00'
tRp1304
sg18
(lp1305
sg20
I59
sg21
(lp1306
I41
aI47
aI57
asbag2
(g10
g4
NtRp1307
(dp1308
g13
g14
(g16
S'\x0e\x00\x00\x00\x00\x00\x00\x00'
tRp1309
sg18
(lp1310
sg20
I60
sg21
(lp1311
I40
aI50
ag14
(g16
S':\x00\x00\x00\x00\x00\x00\x00'
tRp1312
asbasg45
I57
sbtp1313
a(S'm'
g2
(g3
g4
NtRp1314
(dp1315
g7
I88
sg8
(lp1316
g2
(g10
g4
NtRp1317
(dp1318
g13
g14
(g16
S'*\x00\x00\x00\x00\x00\x00\x00'
tRp1319
sg18
(lp1320
sg20
I57
sg21
(lp1321
I126
aI129
aI131
asbag2
(g10
g4
NtRp1322
(dp1323
g13
g14
(g16
S')\x00\x00\x00\x00\x00\x00\x00'
tRp1324
sg18
(lp1325
sg20
I58
sg21
(lp1326
I117
aI118
aI124
asbag2
(g10
g4
NtRp1327
(dp1328
g13
g14
(g16
S'%\x00\x00\x00\x00\x00\x00\x00'
tRp1329
sg18
(lp1330
sg20
I59
sg21
(lp1331
I132
aI133
asbag2
(g10
g4
NtRp1332
(dp1333
g13
g14
(g16
S'*\x00\x00\x00\x00\x00\x00\x00'
tRp1334
sg18
(lp1335
sg20
I60
sg21
(lp1336
I136
aI141
asbag2
(g10
g4
NtRp1337
(dp1338
g13
g14
(g16
S',\x00\x00\x00\x00\x00\x00\x00'
tRp1339
sg18
(lp1340
sg20
I61
sg21
(lp1341
I112
aI116
asbag2
(g10
g4
NtRp1342
(dp1343
g13
g14
(g16
S'(\x00\x00\x00\x00\x00\x00\x00'
tRp1344
sg18
(lp1345
sg20
I62
sg21
(lp1346
I106
aI114
aI118
ag14
(g16
S'n\x00\x00\x00\x00\x00\x00\x00'
tRp1347
ag14
(g16
S'w\x00\x00\x00\x00\x00\x00\x00'
tRp1348
asbag2
(g10
g4
NtRp1349
(dp1350
g13
g14
(g16
S'*\x00\x00\x00\x00\x00\x00\x00'
tRp1351
sg18
(lp1352
sg20
I63
sg21
(lp1353
I123
aI129
ag14
(g16
S'\x84\x00\x00\x00\x00\x00\x00\x00'
tRp1354
asbag2
(g10
g4
NtRp1355
(dp1356
g13
g14
(g16
S'+\x00\x00\x00\x00\x00\x00\x00'
tRp1357
sg18
(lp1358
sg20
I64
sg21
(lp1359
I118
aI119
ag14
(g16
S'z\x00\x00\x00\x00\x00\x00\x00'
tRp1360
ag14
(g16
S'|\x00\x00\x00\x00\x00\x00\x00'
tRp1361
asbag2
(g10
g4
NtRp1362
(dp1363
g13
g14
(g16
S'&\x00\x00\x00\x00\x00\x00\x00'
tRp1364
sg18
(lp1365
sg20
I65
sg21
(lp1366
I109
asbag2
(g10
g4
NtRp1367
(dp1368
g13
g14
(g16
S'0\x00\x00\x00\x00\x00\x00\x00'
tRp1369
sg18
(lp1370
sg20
I66
sg21
(lp1371
I116
asbag2
(g10
g4
NtRp1372
(dp1373
g13
g14
(g16
S'&\x00\x00\x00\x00\x00\x00\x00'
tRp1374
sg18
(lp1375
sg20
I67
sg21
(lp1376
I122
aI124
asbag2
(g10
g4
NtRp1377
(dp1378
g13
g14
(g16
S'&\x00\x00\x00\x00\x00\x00\x00'
tRp1379
sg18
(lp1380
sg20
I68
sg21
(lp1381
I118
asbag2
(g10
g4
NtRp1382
(dp1383
g13
g14
(g16
S'&\x00\x00\x00\x00\x00\x00\x00'
tRp1384
sg18
(lp1385
sg20
I69
sg21
(lp1386
I101
aI103
asbag2
(g10
g4
NtRp1387
(dp1388
g13
g14
(g16
S'+\x00\x00\x00\x00\x00\x00\x00'
tRp1389
sg18
(lp1390
sg20
I70
sg21
(lp1391
I104
aI107
aI114
asbag2
(g10
g4
NtRp1392
(dp1393
g13
g14
(g16
S'(\x00\x00\x00\x00\x00\x00\x00'
tRp1394
sg18
(lp1395
sg20
I71
sg21
(lp1396
I110
aI118
ag14
(g16
S't\x00\x00\x00\x00\x00\x00\x00'
tRp1397
asbag2
(g10
g4
NtRp1398
(dp1399
g13
g14
(g16
S')\x00\x00\x00\x00\x00\x00\x00'
tRp1400
sg18
(lp1401
sg20
I72
sg21
(lp1402
I109
aI110
ag14
(g16
S'u\x00\x00\x00\x00\x00\x00\x00'
tRp1403
asbag2
(g10
g4
NtRp1404
(dp1405
g13
g14
(g16
S'(\x00\x00\x00\x00\x00\x00\x00'
tRp1406
sg18
(lp1407
sg20
I73
sg21
(lp1408
I125
aI126
aI127
asbag2
(g10
g4
NtRp1409
(dp1410
g13
g14
(g16
S'+\x00\x00\x00\x00\x00\x00\x00'
tRp1411
sg18
(lp1412
sg20
I74
sg21
(lp1413
I116
ag14
(g16
S'z\x00\x00\x00\x00\x00\x00\x00'
tRp1414
asbag2
(g10
g4
NtRp1415
(dp1416
g13
g14
(g16
S'&\x00\x00\x00\x00\x00\x00\x00'
tRp1417
sg18
(lp1418
sg20
I75
sg21
(lp1419
I111
ag14
(g16
S'r\x00\x00\x00\x00\x00\x00\x00'
tRp1420
asbag2
(g10
g4
NtRp1421
(dp1422
g13
g14
(g16
S'%\x00\x00\x00\x00\x00\x00\x00'
tRp1423
sg18
(lp1424
sg20
I76
sg21
(lp1425
I104
ag14
(g16
S'q\x00\x00\x00\x00\x00\x00\x00'
tRp1426
asbag2
(g10
g4
NtRp1427
(dp1428
g13
g14
(g16
S'*\x00\x00\x00\x00\x00\x00\x00'
tRp1429
sg18
(lp1430
sg20
I77
sg21
(lp1431
I111
ag14
(g16
S't\x00\x00\x00\x00\x00\x00\x00'
tRp1432
asbag2
(g10
g4
NtRp1433
(dp1434
g13
g14
(g16
S"'\x00\x00\x00\x00\x00\x00\x00"
tRp1435
sg18
(lp1436
sg20
I78
sg21
(lp1437
I105
ag14
(g16
S's\x00\x00\x00\x00\x00\x00\x00'
tRp1438
asbag2
(g10
g4
NtRp1439
(dp1440
g13
g14
(g16
S'*\x00\x00\x00\x00\x00\x00\x00'
tRp1441
sg18
(lp1442
sg20
I79
sg21
(lp1443
I111
ag14
(g16
S'u\x00\x00\x00\x00\x00\x00\x00'
tRp1444
asbag2
(g10
g4
NtRp1445
(dp1446
g13
g14
(g16
S'+\x00\x00\x00\x00\x00\x00\x00'
tRp1447
sg18
(lp1448
sg20
I80
sg21
(lp1449
I112
aI119
ag14
(g16
S't\x00\x00\x00\x00\x00\x00\x00'
tRp1450
asbag2
(g10
g4
NtRp1451
(dp1452
g13
g14
(g16
S'(\x00\x00\x00\x00\x00\x00\x00'
tRp1453
sg18
(lp1454
sg20
I81
sg21
(lp1455
I122
ag14
(g16
S'\x7f\x00\x00\x00\x00\x00\x00\x00'
tRp1456
asbag2
(g10
g4
NtRp1457
(dp1458
g13
g14
(g16
S',\x00\x00\x00\x00\x00\x00\x00'
tRp1459
sg18
(lp1460
sg20
I82
sg21
(lp1461
I118
aI119
aI125
ag14
(g16
S'{\x00\x00\x00\x00\x00\x00\x00'
tRp1462
asbag2
(g10
g4
NtRp1463
(dp1464
g13
g14
(g16
S'+\x00\x00\x00\x00\x00\x00\x00'
tRp1465
sg18
(lp1466
sg20
I83
sg21
(lp1467
I109
ag14
(g16
S'p\x00\x00\x00\x00\x00\x00\x00'
tRp1468
asbag2
(g10
g4
NtRp1469
(dp1470
g13
g14
(g16
S',\x00\x00\x00\x00\x00\x00\x00'
tRp1471
sg18
(lp1472
sg20
I84
sg21
(lp1473
I115
ag14
(g16
S'y\x00\x00\x00\x00\x00\x00\x00'
tRp1474
asbag2
(g10
g4
NtRp1475
(dp1476
g13
g14
(g16
S'(\x00\x00\x00\x00\x00\x00\x00'
tRp1477
sg18
(lp1478
sg20
I85
sg21
(lp1479
I110
aI112
aI121
asbag2
(g10
g4
NtRp1480
(dp1481
g13
g14
(g16
S')\x00\x00\x00\x00\x00\x00\x00'
tRp1482
sg18
(lp1483
sg20
I86
sg21
(lp1484
I121
asbag2
(g10
g4
NtRp1485
(dp1486
g13
g14
(g16
S'(\x00\x00\x00\x00\x00\x00\x00'
tRp1487
sg18
(lp1488
sg20
I87
sg21
(lp1489
I113
asbag2
(g10
g4
NtRp1490
(dp1491
g13
g14
(g16
S'$\x00\x00\x00\x00\x00\x00\x00'
tRp1492
sg18
(lp1493
sg20
I88
sg21
(lp1494
I120
asbasg45
I57
sbtp1495
a(S'r'
g2
(g3
g4
NtRp1496
(dp1497
g7
I61
sg8
(lp1498
g2
(g10
g4
NtRp1499
(dp1500
g13
g14
(g16
S'\x1c\x00\x00\x00\x00\x00\x00\x00'
tRp1501
sg18
(lp1502
sg20
I58
sg21
(lp1503
I85
aI87
aI88
asbag2
(g10
g4
NtRp1504
(dp1505
g13
g14
(g16
S'\x18\x00\x00\x00\x00\x00\x00\x00'
tRp1506
sg18
(lp1507
sg20
I59
sg21
(lp1508
I90
aI93
aI94
asbag2
(g10
g4
NtRp1509
(dp1510
g13
g14
(g16
S'\x1c\x00\x00\x00\x00\x00\x00\x00'
tRp1511
sg18
(lp1512
sg20
I60
sg21
(lp1513
I97
aI101
aI102
asbag2
(g10
g4
NtRp1514
(dp1515
g13
g14
(g16
S'\x1c\x00\x00\x00\x00\x00\x00\x00'
tRp1516
sg18
(lp1517
sg20
I61
sg21
(lp1518
I78
aI82
asbasg45
I58
sbtp1519
a(S'r'
g2
(g3
g4
NtRp1520
(dp1521
g7
I63
sg8
(lp1522
g2
(g10
g4
NtRp1523
(dp1524
g13
g14
(g16
S'\x17\x00\x00\x00\x00\x00\x00\x00'
tRp1525
sg18
(lp1526
sg20
I60
sg21
(lp1527
I73
aI84
asbag2
(g10
g4
NtRp1528
(dp1529
g13
g14
(g16
S'\x17\x00\x00\x00\x00\x00\x00\x00'
tRp1530
sg18
(lp1531
sg20
I61
sg21
(lp1532
I64
ag14
(g16
S'D\x00\x00\x00\x00\x00\x00\x00'
tRp1533
asbag2
(g10
g4
NtRp1534
(dp1535
g13
g14
(g16
S'\x17\x00\x00\x00\x00\x00\x00\x00'
tRp1536
sg18
(lp1537
sg20
I62
sg21
(lp1538
I56
aI66
asbag2
(g10
g4
NtRp1539
(dp1540
g13
g14
(g16
S'\x1a\x00\x00\x00\x00\x00\x00\x00'
tRp1541
sg18
(lp1542
sg20
I63
sg21
(lp1543
I69
aI81
asbasg45
I60
sbtp1544
a(S'r'
g2
(g3
g4
NtRp1545
(dp1546
g7
I66
sg8
(lp1547
g2
(g10
g4
NtRp1548
(dp1549
g13
g14
(g16
S'$\x00\x00\x00\x00\x00\x00\x00'
tRp1550
sg18
(lp1551
sg20
I61
sg21
(lp1552
I99
ag14
(g16
S'd\x00\x00\x00\x00\x00\x00\x00'
tRp1553
asbag2
(g10
g4
NtRp1554
(dp1555
g13
g14
(g16
S'"\x00\x00\x00\x00\x00\x00\x00'
tRp1556
sg18
(lp1557
sg20
I62
sg21
(lp1558
I92
aI93
aI94
asbag2
(g10
g4
NtRp1559
(dp1560
g13
g14
(g16
S'%\x00\x00\x00\x00\x00\x00\x00'
tRp1561
sg18
(lp1562
sg20
I63
sg21
(lp1563
I108
aI110
asbag2
(g10
g4
NtRp1564
(dp1565
g13
g14
(g16
S"'\x00\x00\x00\x00\x00\x00\x00"
tRp1566
sg18
(lp1567
sg20
I64
sg21
(lp1568
I108
aI109
asbag2
(g10
g4
NtRp1569
(dp1570
g13
g14
(g16
S'!\x00\x00\x00\x00\x00\x00\x00'
tRp1571
sg18
(lp1572
sg20
I65
sg21
(lp1573
I95
aI96
aI97
asbag2
(g10
g4
NtRp1574
(dp1575
g13
g14
(g16
S')\x00\x00\x00\x00\x00\x00\x00'
tRp1576
sg18
(lp1577
sg20
I66
sg21
(lp1578
I104
aI105
asbasg45
I61
sbtp1579
a(S'r'
g2
(g3
g4
NtRp1580
(dp1581
g7
I66
sg8
(lp1582
g2
(g10
g4
NtRp1583
(dp1584
g13
g14
(g16
S'\x0f\x00\x00\x00\x00\x00\x00\x00'
tRp1585
sg18
(lp1586
sg20
I63
sg21
(lp1587
I39
aI41
aI44
aI55
asbag2
(g10
g4
NtRp1588
(dp1589
g13
g14
(g16
S'\x11\x00\x00\x00\x00\x00\x00\x00'
tRp1590
sg18
(lp1591
sg20
I64
sg21
(lp1592
I37
aI41
aI42
aI50
aI52
asbag2
(g10
g4
NtRp1593
(dp1594
g13
g14
(g16
S'\x0f\x00\x00\x00\x00\x00\x00\x00'
tRp1595
sg18
(lp1596
sg20
I65
sg21
(lp1597
I34
aI40
ag14
(g16
S'4\x00\x00\x00\x00\x00\x00\x00'
tRp1598
asbag2
(g10
g4
NtRp1599
(dp1600
g13
g14
(g16
S'\x11\x00\x00\x00\x00\x00\x00\x00'
tRp1601
sg18
(lp1602
sg20
I66
sg21
(lp1603
I38
asbasg45
I63
sbtp1604
a(S'm'
g2
(g3
g4
NtRp1605
(dp1606
g7
I90
sg8
(lp1607
g2
(g10
g4
NtRp1608
(dp1609
g13
g14
(g16
S'-\x00\x00\x00\x00\x00\x00\x00'
tRp1610
sg18
(lp1611
sg20
I64
sg21
(lp1612
I114
aI125
asbag2
(g10
g4
NtRp1613
(dp1614
g13
g14
(g16
S'(\x00\x00\x00\x00\x00\x00\x00'
tRp1615
sg18
(lp1616
sg20
I65
sg21
(lp1617
I104
asbag2
(g10
g4
NtRp1618
(dp1619
g13
g14
(g16
S'2\x00\x00\x00\x00\x00\x00\x00'
tRp1620
sg18
(lp1621
sg20
I66
sg21
(lp1622
I110
aI123
asbag2
(g10
g4
NtRp1623
(dp1624
g13
g14
(g16
S'(\x00\x00\x00\x00\x00\x00\x00'
tRp1625
sg18
(lp1626
sg20
I67
sg21
(lp1627
I118
aI126
asbag2
(g10
g4
NtRp1628
(dp1629
g13
g14
(g16
S'(\x00\x00\x00\x00\x00\x00\x00'
tRp1630
sg18
(lp1631
sg20
I68
sg21
(lp1632
I115
aI122
asbag2
(g10
g4
NtRp1633
(dp1634
g13
g14
(g16
S"'\x00\x00\x00\x00\x00\x00\x00"
tRp1635
sg18
(lp1636
sg20
I69
sg21
(lp1637
I97
aI108
asbag2
(g10
g4
NtRp1638
(dp1639
g13
g14
(g16
S'-\x00\x00\x00\x00\x00\x00\x00'
tRp1640
sg18
(lp1641
sg20
I70
sg21
(lp1642
I102
aI112
asbag2
(g10
g4
NtRp1643
(dp1644
g13
g14
(g16
S'*\x00\x00\x00\x00\x00\x00\x00'
tRp1645
sg18
(lp1646
sg20
I71
sg21
(lp1647
I108
aI121
asbag2
(g10
g4
NtRp1648
(dp1649
g13
g14
(g16
S'+\x00\x00\x00\x00\x00\x00\x00'
tRp1650
sg18
(lp1651
sg20
I72
sg21
(lp1652
I120
ag14
(g16
S'h\x00\x00\x00\x00\x00\x00\x00'
tRp1653
asbag2
(g10
g4
NtRp1654
(dp1655
g13
g14
(g16
S'*\x00\x00\x00\x00\x00\x00\x00'
tRp1656
sg18
(lp1657
sg20
I73
sg21
(lp1658
I132
ag14
(g16
S'x\x00\x00\x00\x00\x00\x00\x00'
tRp1659
asbag2
(g10
g4
NtRp1660
(dp1661
g13
g14
(g16
S'-\x00\x00\x00\x00\x00\x00\x00'
tRp1662
sg18
(lp1663
sg20
I74
sg21
(lp1664
I124
ag14
(g16
S'j\x00\x00\x00\x00\x00\x00\x00'
tRp1665
asbag2
(g10
g4
NtRp1666
(dp1667
g13
g14
(g16
S'(\x00\x00\x00\x00\x00\x00\x00'
tRp1668
sg18
(lp1669
sg20
I75
sg21
(lp1670
I115
ag14
(g16
S'k\x00\x00\x00\x00\x00\x00\x00'
tRp1671
asbag2
(g10
g4
NtRp1672
(dp1673
g13
g14
(g16
S"'\x00\x00\x00\x00\x00\x00\x00"
tRp1674
sg18
(lp1675
sg20
I76
sg21
(lp1676
I115
ag14
(g16
S'e\x00\x00\x00\x00\x00\x00\x00'
tRp1677
asbag2
(g10
g4
NtRp1678
(dp1679
g13
g14
(g16
S',\x00\x00\x00\x00\x00\x00\x00'
tRp1680
sg18
(lp1681
sg20
I77
sg21
(lp1682
I115
ag14
(g16
S'l\x00\x00\x00\x00\x00\x00\x00'
tRp1683
asbag2
(g10
g4
NtRp1684
(dp1685
g13
g14
(g16
S'(\x00\x00\x00\x00\x00\x00\x00'
tRp1686
sg18
(lp1687
sg20
I78
sg21
(lp1688
I107
aI111
asbag2
(g10
g4
NtRp1689
(dp1690
g13
g14
(g16
S',\x00\x00\x00\x00\x00\x00\x00'
tRp1691
sg18
(lp1692
sg20
I79
sg21
(lp1693
sbag2
(g10
g4
NtRp1694
(dp1695
g13
g14
(g16
S',\x00\x00\x00\x00\x00\x00\x00'
tRp1696
sg18
(lp1697
sg20
I80
sg21
(lp1698
I115
asbag2
(g10
g4
NtRp1699
(dp1700
g13
g14
(g16
S'+\x00\x00\x00\x00\x00\x00\x00'
tRp1701
sg18
(lp1702
sg20
I81
sg21
(lp1703
I125
asbag2
(g10
g4
NtRp1704
(dp1705
g13
g14
(g16
S'.\x00\x00\x00\x00\x00\x00\x00'
tRp1706
sg18
(lp1707
sg20
I82
sg21
(lp1708
sbag2
(g10
g4
NtRp1709
(dp1710
g13
g14
(g16
S'-\x00\x00\x00\x00\x00\x00\x00'
tRp1711
sg18
(lp1712
sg20
I83
sg21
(lp1713
sbag2
(g10
g4
NtRp1714
(dp1715
g13
g14
(g16
S'+\x00\x00\x00\x00\x00\x00\x00'
tRp1716
sg18
(lp1717
sg20
I84
sg21
(lp1718
I117
aI120
asbag2
(g10
g4
NtRp1719
(dp1720
g13
g14
(g16
S')\x00\x00\x00\x00\x00\x00\x00'
tRp1721
sg18
(lp1722
sg20
I85
sg21
(lp1723
I116
aI122
asbag2
(g10
g4
NtRp1724
(dp1725
g13
g14
(g16
S"'\x00\x00\x00\x00\x00\x00\x00"
tRp1726
sg18
(lp1727
sg20
I86
sg21
(lp1728
I117
aI122
aI129
asbag2
(g10
g4
NtRp1729
(dp1730
g13
g14
(g16
S"'\x00\x00\x00\x00\x00\x00\x00"
tRp1731
sg18
(lp1732
sg20
I87
sg21
(lp1733
I111
aI116
ag14
(g16
S'm\x00\x00\x00\x00\x00\x00\x00'
tRp1734
asbag2
(g10
g4
NtRp1735
(dp1736
g13
g14
(g16
S'&\x00\x00\x00\x00\x00\x00\x00'
tRp1737
sg18
(lp1738
sg20
I88
sg21
(lp1739
I123
aI125
ag14
(g16
S't\x00\x00\x00\x00\x00\x00\x00'
tRp1740
asbag2
(g10
g4
NtRp1741
(dp1742
g13
g14
(g16
S'$\x00\x00\x00\x00\x00\x00\x00'
tRp1743
sg18
(lp1744
sg20
I89
sg21
(lp1745
I117
aI118
asbag2
(g10
g4
NtRp1746
(dp1747
g13
g14
(g16
S'&\x00\x00\x00\x00\x00\x00\x00'
tRp1748
sg18
(lp1749
sg20
I90
sg21
(lp1750
I115
asbasg45
I64
sbtp1751
a(S'm'
g2
(g3
g4
NtRp1752
(dp1753
g7
I68
sg8
(lp1754
g2
(g10
g4
NtRp1755
(dp1756
g13
g14
(g16
S'\x16\x00\x00\x00\x00\x00\x00\x00'
tRp1757
sg18
(lp1758
sg20
I65
sg21
(lp1759
I61
aI76
asbag2
(g10
g4
NtRp1760
(dp1761
g13
g14
(g16
S'\x18\x00\x00\x00\x00\x00\x00\x00'
tRp1762
sg18
(lp1763
sg20
I66
sg21
(lp1764
I73
ag14
(g16
S'9\x00\x00\x00\x00\x00\x00\x00'
tRp1765
asbag2
(g10
g4
NtRp1766
(dp1767
g13
g14
(g16
S'\x11\x00\x00\x00\x00\x00\x00\x00'
tRp1768
sg18
(lp1769
sg20
I67
sg21
(lp1770
I56
aI68
aI72
aI75
asbag2
(g10
g4
NtRp1771
(dp1772
g13
g14
(g16
S'\x11\x00\x00\x00\x00\x00\x00\x00'
tRp1773
sg18
(lp1774
sg20
I68
sg21
(lp1775
I73
aI77
ag14
(g16
S'=\x00\x00\x00\x00\x00\x00\x00'
tRp1776
asbasg45
I65
sbtp1777
a(S'm'
g2
(g3
g4
NtRp1778
(dp1779
g7
I84
sg8
(lp1780
g2
(g10
g4
NtRp1781
(dp1782
g13
g14
(g16
S'#\x00\x00\x00\x00\x00\x00\x00'
tRp1783
sg18
(lp1784
sg20
I67
sg21
(lp1785
I106
aI110
asbag2
(g10
g4
NtRp1786
(dp1787
g13
g14
(g16
S'"\x00\x00\x00\x00\x00\x00\x00'
tRp1788
sg18
(lp1789
sg20
I68
sg21
(lp1790
I106
ag14
(g16
S'l\x00\x00\x00\x00\x00\x00\x00'
tRp1791
asbag2
(g10
g4
NtRp1792
(dp1793
g13
g14
(g16
S'!\x00\x00\x00\x00\x00\x00\x00'
tRp1794
sg18
(lp1795
sg20
I69
sg21
(lp1796
I89
aI92
asbag2
(g10
g4
NtRp1797
(dp1798
g13
g14
(g16
S"'\x00\x00\x00\x00\x00\x00\x00"
tRp1799
sg18
(lp1800
sg20
I70
sg21
(lp1801
I94
asbag2
(g10
g4
NtRp1802
(dp1803
g13
g14
(g16
S'$\x00\x00\x00\x00\x00\x00\x00'
tRp1804
sg18
(lp1805
sg20
I71
sg21
(lp1806
I98
asbag2
(g10
g4
NtRp1807
(dp1808
g13
g14
(g16
S'%\x00\x00\x00\x00\x00\x00\x00'
tRp1809
sg18
(lp1810
sg20
I72
sg21
(lp1811
I98
asbag2
(g10
g4
NtRp1812
(dp1813
g13
g14
(g16
S'$\x00\x00\x00\x00\x00\x00\x00'
tRp1814
sg18
(lp1815
sg20
I73
sg21
(lp1816
I112
aI114
aI116
asbag2
(g10
g4
NtRp1817
(dp1818
g13
g14
(g16
S'(\x00\x00\x00\x00\x00\x00\x00'
tRp1819
sg18
(lp1820
sg20
I74
sg21
(lp1821
I102
aI105
aI107
aI110
asbag2
(g10
g4
NtRp1822
(dp1823
g13
g14
(g16
S'#\x00\x00\x00\x00\x00\x00\x00'
tRp1824
sg18
(lp1825
sg20
I75
sg21
(lp1826
I101
asbag2
(g10
g4
NtRp1827
(dp1828
g13
g14
(g16
S'!\x00\x00\x00\x00\x00\x00\x00'
tRp1829
sg18
(lp1830
sg20
I76
sg21
(lp1831
I93
aI96
aI98
asbag2
(g10
g4
NtRp1832
(dp1833
g13
g14
(g16
S'%\x00\x00\x00\x00\x00\x00\x00'
tRp1834
sg18
(lp1835
sg20
I77
sg21
(lp1836
I101
aI103
aI104
asbag2
(g10
g4
NtRp1837
(dp1838
g13
g14
(g16
S'#\x00\x00\x00\x00\x00\x00\x00'
tRp1839
sg18
(lp1840
sg20
I78
sg21
(lp1841
I98
ag14
(g16
S'd\x00\x00\x00\x00\x00\x00\x00'
tRp1842
asbag2
(g10
g4
NtRp1843
(dp1844
g13
g14
(g16
S'&\x00\x00\x00\x00\x00\x00\x00'
tRp1845
sg18
(lp1846
sg20
I79
sg21
(lp1847
I101
aI105
aI108
asbag2
(g10
g4
NtRp1848
(dp1849
g13
g14
(g16
S'(\x00\x00\x00\x00\x00\x00\x00'
tRp1850
sg18
(lp1851
sg20
I80
sg21
(lp1852
I104
aI108
asbag2
(g10
g4
NtRp1853
(dp1854
g13
g14
(g16
S'&\x00\x00\x00\x00\x00\x00\x00'
tRp1855
sg18
(lp1856
sg20
I81
sg21
(lp1857
I109
aI116
asbag2
(g10
g4
NtRp1858
(dp1859
g13
g14
(g16
S'*\x00\x00\x00\x00\x00\x00\x00'
tRp1860
sg18
(lp1861
sg20
I82
sg21
(lp1862
I110
aI116
asbag2
(g10
g4
NtRp1863
(dp1864
g13
g14
(g16
S'(\x00\x00\x00\x00\x00\x00\x00'
tRp1865
sg18
(lp1866
sg20
I83
sg21
(lp1867
I104
asbag2
(g10
g4
NtRp1868
(dp1869
g13
g14
(g16
S'(\x00\x00\x00\x00\x00\x00\x00'
tRp1870
sg18
(lp1871
sg20
I84
sg21
(lp1872
I112
asbasg45
I67
sbtp1873
a(S'r'
g2
(g3
g4
NtRp1874
(dp1875
g7
I76
sg8
(lp1876
g2
(g10
g4
NtRp1877
(dp1878
g13
g14
(g16
S'\x13\x00\x00\x00\x00\x00\x00\x00'
tRp1879
sg18
(lp1880
sg20
I70
sg21
(lp1881
I42
aI53
aI54
asbag2
(g10
g4
NtRp1882
(dp1883
g13
g14
(g16
S'\x10\x00\x00\x00\x00\x00\x00\x00'
tRp1884
sg18
(lp1885
sg20
I71
sg21
(lp1886
I43
aI61
aI62
asbag2
(g10
g4
NtRp1887
(dp1888
g13
g14
(g16
S'\x10\x00\x00\x00\x00\x00\x00\x00'
tRp1889
sg18
(lp1890
sg20
I72
sg21
(lp1891
I36
aI53
aI54
asbag2
(g10
g4
NtRp1892
(dp1893
g13
g14
(g16
S'\x0e\x00\x00\x00\x00\x00\x00\x00'
tRp1894
sg18
(lp1895
sg20
I73
sg21
(lp1896
I45
aI61
aI63
asbag2
(g10
g4
NtRp1897
(dp1898
g13
g14
(g16
S'\x10\x00\x00\x00\x00\x00\x00\x00'
tRp1899
sg18
(lp1900
sg20
I74
sg21
(lp1901
I38
aI50
asbag2
(g10
g4
NtRp1902
(dp1903
g13
g14
(g16
S'\x0e\x00\x00\x00\x00\x00\x00\x00'
tRp1904
sg18
(lp1905
sg20
I75
sg21
(lp1906
I47
aI62
aI63
asbag2
(g10
g4
NtRp1907
(dp1908
g13
g14
(g16
S'\x0c\x00\x00\x00\x00\x00\x00\x00'
tRp1909
sg18
(lp1910
sg20
I76
sg21
(lp1911
I36
aI51
aI54
asbasg45
I70
sbtp1912
a.