(dp1
S'arm_path'
p2
NsS'disparition_events'
p3
(lp4
sS'unsure_arms_list'
p5
(lp6
sS'arms_list'
p7
(lp8
sS'trajectories'
p9
(lp10
sS'free_arms_list'
p11
(lp12
sS'n_frames'
p13
I0
sS'apparitions_events'
p14
(lp15
sS'body_tracker'
p16
(lp17
sS'arm_tracker'
p18
(lp19
sS'path'
p20
S''
sS'body_path'
p21
Ns.