(lp1
(S'm'
I7
tp2
a(S'r'
I10
tp3
a(S'r'
I14
tp4
a(S'r'
I15
tp5
a(S'r'
I21
tp6
a(S'r'
I26
tp7
a(S'm'
I27
tp8
a(S'r'
I29
tp9
a(S'm'
I31
tp10
a(S'm'
I32
tp11
a(S'm'
I36
tp12
a(S'm'
I41
tp13
a(S'm'
I47
tp14
a(S'm'
I48
tp15
a(S'r'
I55
tp16
a(S'm'
I59
tp17
a(S'm'
I64
tp18
a(S'm'
I70
tp19
a(S'm'
I73
tp20
a(S'r'
I75
tp21
a(S'm'
I76
tp22
a(S'r'
I80
tp23
a(S'm'
I82
tp24
a(S'r'
I84
tp25
a(S'r'
I89
tp26
a(S'm'
I92
tp27
a(S'r'
I95
tp28
a(S'r'
I97
tp29
a(S'm'
I101
tp30
a(S'r'
I102
tp31
a(S'r'
I105
tp32
a(S'm'
I106
tp33
a(S'r'
I107
tp34
a(S'r'
I110
tp35
a(S'm'
I111
tp36
a(S'm'
I113
tp37
a.