(lp1
(S'r'
I0
tp2
a(S'r'
I2
tp3
a(S'r'
I4
tp4
a(S'm'
I5
tp5
a(S'r'
I6
tp6
a(S'm'
I8
tp7
a(S'm'
I9
tp8
a(S'r'
I10
tp9
a(S'r'
I15
tp10
a(S'r'
I16
tp11
a(S'm'
I21
tp12
a(S'r'
I22
tp13
a(S'r'
I24
tp14
a(S'm'
I26
tp15
a(S'r'
I27
tp16
a(S'r'
I28
tp17
a(S'r'
I30
tp18
a(S'm'
I31
tp19
a(S'm'
I37
tp20
a(S'r'
I38
tp21
a(S'r'
I41
tp22
a(S'm'
I42
tp23
a(S'r'
I43
tp24
a(S'r'
I46
tp25
a(S'm'
I47
tp26
a(S'm'
I49
tp27
a(S'r'
I51
tp28
a(S'r'
I52
tp29
a(S'r'
I53
tp30
a(S'r'
I55
tp31
a(S'r'
I59
tp32
a(S'r'
I66
tp33
a(S'r'
I67
tp34
a(S'r'
I68
tp35
a(S'r'
I70
tp36
a(S'm'
I71
tp37
a(S'm'
I75
tp38
a(S'm'
I76
tp39
a(S'r'
I77
tp40
a(S'r'
I81
tp41
a(S'm'
I82
tp42
a(S'm'
I83
tp43
a(S'r'
I85
tp44
a(S'r'
I86
tp45
a(S'r'
I87
tp46
a(S'r'
I88
tp47
a(S'm'
I94
tp48
a(S'r'
I95
tp49
a(S'm'
I96
tp50
a(S'r'
I97
tp51
a(S'm'
I99
tp52
a(S'm'
I109
tp53
a(S'r'
I111
tp54
a(S'r'
I112
tp55
a.