(lp1
(S'r'
I4
tp2
a(S'm'
I11
tp3
a(S'm'
I22
tp4
a(S'r'
I23
tp5
a(S'r'
I26
tp6
a(S'r'
I27
tp7
a(S'r'
I29
tp8
a(S'r'
I30
tp9
a(S'r'
I31
tp10
a(S'r'
I36
tp11
a(S'm'
I40
tp12
a(S'r'
I47
tp13
a(S'r'
I62
tp14
a(S'r'
I65
tp15
a(S'm'
I66
tp16
a(S'r'
I68
tp17
a(S'r'
I72
tp18
a(S'm'
I73
tp19
a(S'r'
I74
tp20
a(S'm'
I82
tp21
a(S'r'
I83
tp22
a(S'm'
I85
tp23
a(S'r'
I90
tp24
a(S'r'
I92
tp25
a(S'r'
I93
tp26
a(S'r'
I96
tp27
a(S'r'
I98
tp28
a(S'r'
I101
tp29
a(S'r'
I103
tp30
a(S'r'
I104
tp31
a(S'r'
I110
tp32
a(S'm'
I111
tp33
a(S'r'
I113
tp34
a.