(lp1
(S'r'
I0
tp2
a(S'm'
I2
tp3
a(S'r'
I4
tp4
a(S'r'
I6
tp5
a(S'r'
I9
tp6
a(S'r'
I10
tp7
a(S'r'
I12
tp8
a(S'r'
I13
tp9
a(S'm'
I15
tp10
a(S'm'
I21
tp11
a(S'r'
I24
tp12
a(S'r'
I37
tp13
a(S'm'
I44
tp14
a(S'm'
I45
tp15
a(S'r'
I46
tp16
a(S'm'
I47
tp17
a(S'r'
I48
tp18
a(S'r'
I54
tp19
a(S'r'
I56
tp20
a(S'r'
I62
tp21
a(S'r'
I64
tp22
a(S'r'
I66
tp23
a(S'm'
I67
tp24
a(S'r'
I69
tp25
a(S'm'
I73
tp26
a(S'r'
I74
tp27
a(S'r'
I75
tp28
a(S'm'
I77
tp29
a(S'm'
I79
tp30
a(S'm'
I80
tp31
a(S'm'
I83
tp32
a(S'r'
I84
tp33
a(S'r'
I85
tp34
a(S'm'
I86
tp35
a(S'm'
I90
tp36
a(S'm'
I94
tp37
a(S'r'
I96
tp38
a(S'r'
I108
tp39
a(S'm'
I110
tp40
a(S'm'
I111
tp41
a(S'm'
I113
tp42
a.