(lp1
(S'm'
I2
tp2
a(S'm'
I3
tp3
a(S'm'
I6
tp4
a(S'r'
I7
tp5
a(S'm'
I13
tp6
a(S'r'
I18
tp7
a(S'r'
I19
tp8
a(S'm'
I27
tp9
a(S'r'
I30
tp10
a(S'r'
I34
tp11
a(S'r'
I36
tp12
a(S'r'
I37
tp13
a(S'm'
I42
tp14
a(S'r'
I43
tp15
a(S'm'
I52
tp16
a(S'r'
I53
tp17
a(S'r'
I59
tp18
a(S'm'
I64
tp19
a(S'r'
I65
tp20
a(S'r'
I66
tp21
a(S'm'
I67
tp22
a(S'r'
I68
tp23
a(S'm'
I74
tp24
a(S'r'
I76
tp25
a(S'r'
I79
tp26
a(S'r'
I81
tp27
a(S'm'
I86
tp28
a(S'r'
I87
tp29
a(S'r'
I88
tp30
a(S'r'
I94
tp31
a(S'm'
I95
tp32
a(S'm'
I96
tp33
a(S'r'
I97
tp34
a(S'm'
I102
tp35
a(S'r'
I105
tp36
a(S'r'
I107
tp37
a(S'r'
I108
tp38
a.